	.file	"memory_benchmark.c"
	.section	.gnu.lto_.jmpfuncs.d320e5a4783addb0,"",@progbits
	.string	"x\234cb`b\300\006\316020\330\001iN\006F&\246\b\306LF\2100\023\n\217\231\221\231\251\232\341W\303\214\006\201LFF9\006\306\271\r3\0342\031\021&\242(\306\024bg\344`\006*\006\213\200\244Y\240l\026\250vNv&\204\371\254r\fR\020\363\331\340\246\303%\331\345\0304 \222\034\230\222\234r\f\226\020I.l\356\002\331\\\006v\037#\204b*CU\301\305"
	.string	"d\300\0217\334\311\334,\02010\207\247a\312\353;\314\350<\036&\006H\020u\200\034\302\233\314\b\017\032TaF\354\302\360\220d\202\206 \330p>\006(\003\3502\022\004\031$J2\212R\023S\024TS\024J\362K\022s\024\362\013\024TsR\270\030xs\022KR\363\222+\201\2744.\006\001\240\262\374\322\364\214\202\322\022\210"
	.string	"+\230\004"
	.ascii	"\002\364M,"
	.text
	.section	.gnu.lto_.inline.d320e5a4783addb0,"",@progbits
	.string	"x\234\225P;N\303@\020}3\273&\376l\326\026%\005Att\310\005\0359\202\033.\024\2114\221\"\261\r\022\005\205E\003\022]N`\245BT4 \216@\301!\330\331u\020\0067\270\231\217\337o\226\301\030\373\016\372u\206\312\254,\021\bP\320y\267<\207\366\034\372\230h\206z\2703Z`\312\220\b\361\177\300\252\252\257U\004C\315\237.K\354\2653\206ng\001\245\247\"\342\032\327\364x=%(\231e\003\331LP\274\242W\340\312]\345\275\202\037\323\016\373\033&\016\377("
	.ascii	"\354v\235F@\272\013\341\032$\226\240}\025\331\354\350tK\304\374"
	.ascii	"\315Q\365bc#\207_J\335\023\305{\227\341w\215\261\007)s\224\265"
	.ascii	"\367J\273yT\222,\2057p\315h)p|3\b\236\034>\337\377\f\301\355"
	.ascii	"-\245\340\317Gc\302\251\342(\227\210\035EW\212\003\fN\336|\341"
	.ascii	"by\201\354\375,xS>x\334\261.\004\227&\261\341\030\237\341O\203"
	.ascii	"/\246\265B\220"
	.text
	.section	.gnu.lto_.pureconst.d320e5a4783addb0,"",@progbits
	.string	"x\234cb`b\020f\200"
	.string	"N\0063&3f)vV\016\tNI.\tn)\036I"
	.ascii	"\017\250\001f"
	.text
	.section	.gnu.lto_seq_write_op.d320e5a4783addb0,"",@progbits
	.string	"x\234e\2211h\024Q\020\206\347\177o\367\356\366\202\030\022\260\324\220\316\302\240\330Xji\177!Iu\254\227\343\262\310\032Y\257\211\026y\227\273\220\240 \227\220@\320F\213 \242`\251\306f\301\"X\250\275\325\225Vj\235\302\365\177\373\366rI|\2603\303\274\371\346\2377\253D\311\331s\205\337\006\3237\350\341\013T\377\233H\247\242\240]\240\341\271\300s\231[\220U\245=\254.\300\342zZ^\032\263=\330?\032\250\255\235t\317\364\322,\303\245\b\224\272"
	.ascii	"i@\346\021\0017s\247*\247\265s\266\237\276?\354\302l\233\316"
	.ascii	"\237,;\037A+\271<\002\247\034\350\375\017\246\375\364\343\341"
	.ascii	"\356\204y\261c\326\006YFIO\311\365\021i\234W\343\247\321w*e\365"
	.ascii	"\333O\275\037\027\317i\304\020OB\274\302\264\224\350\367\351"
	.ascii	"\313\022\301\257X\023\320H\225F\217YC\330\227\036\007\236r@\210"
	.ascii	"\327\264b\005yj\264\220Y(\201\376*k\007\353\277\237\226C\274"
	.ascii	"\341J[\360\236\313\263\2161f\216]Z\320v\254\223#\315\2627W\253"
	.ascii	"\277\313\372\340\347\347\252\243D\036\311\221\3314\343\021J\r"
	.ascii	"\270z\013j{\3610B\331\311\027\305\021\270Z\312~\371\300\3770"
	.ascii	"\224-9Yv\030\365\n\342\274\227\355\024\024\362\304~\351!S\346"
	.ascii	"\2646\325}|\234\2520k\353}//\356>9\276\t\250\321*\224\017\374"
	.ascii	"a\266JY\344/\rN\276\224\344f\367/\206Uc,\314\337\0037\302mwQ"
	.ascii	"lj\341,O\300\0055\316\307e\241V\354D&\343f\274\234\254\324\357"
	.ascii	"4\3575\226\3420\271;\323\220\211\366R\322\f\027\353\313\367\353"
	.ascii	"a\222\204+3\327\256\006E*Z\364\037\264\303\244\375\017$I\245"
	.ascii	"\354"
	.text
	.section	.gnu.lto_rand_write_op.d320e5a4783addb0,"",@progbits
	.ascii	"x\234e\221\261k\024Q\020\306\347{o\367\356\366\202\030\"\330"
	.ascii	"\032Ria \330Xji\177AS\035\353\345\270,a\215\254\327D\213\274"
	.ascii	"\313]0h\341\031\"\210ib!\")\322\007\204\005\213\240`\362/\034"
	.ascii	"\004[QlD$\353\367\366\355\345\222\370`g\206y\363\233o\336\254"
	.ascii	"\022%\347\317u~O\231\276I\017_\240\372\007\"\235\212\202v\201"
	.ascii	"\206\347\002\317enCV\224\366\2602\007\213\353)yk\314\306\340"
	.ascii	"[6P/7\323\327\246\227f\031\256D\240\324eH\003r\017\021p+w\252"
	.ascii	"rV;g\373\351\317\375.\314\206\351\374\310\262\213\021\264\222"
	.ascii	"k#p\322\201\336\377`\332O\177\355\277\2320\333\233fu\220e\224"
	.ascii	"\364\224\334\030\221\306y5~\026\335U)\253\377~\354}\271zA#\206"
	.ascii	"x\022\342=\246\244D\377\216\276,\021\374\2125\001\215Ti\364\230"
	.ascii	"5\204}\351q\340I\007\204\370@+V\220\247F\013\231\205\022\350"
	.ascii	"\257\262\272\267v\364\242\034b\207+m\301\333\2227\035c\314]v"
	.ascii	"iA\333\261N\2174\313\336\\\255>\224\265\301\361\247\252\243D"
	.ascii	"\236\310\037\263n\306#\224\032p\365\026\324\366\342q\204\262"
	.ascii	"\223/\212#p\265\224\375\374\233\377a([r\262\3540\352\025\304"
	.ascii	"y/\333)(\344\211}\327C\246\314im\252\373\354$Ua\326\326\373^"
	.ascii	"^\334}~r\023P\243U(\357\371\303l\225\262\310_\032\234~)\311\365"
	.ascii	"\3561\206Uc,\314\337\0037\302\035wQlj\356<O\300\0055\316\307"
	.ascii	"e\241V\354D.\305\315x)Y\256\337o>h,\304a\2628\335\220\211\366"
	.ascii	"B\322\f\347\353K\017\353a\222\204\313\32333A\221\212\346\375"
	.ascii	"G\3550i\377\003\344\030\247B"
	.text
	.section	.gnu.lto_read_write_op.d320e5a4783addb0,"",@progbits
	.string	"x\234\245V]l\223e\024>\347\373i\273\321\322v\033\343g\260\225\2371~F\023\020$^\230p\343\205\027\3361\203\361\242\371\3266\345\013+[\272\0323\214\331\327ub\205M\253\t\311\024I\020A\021\004$\323\224_)b\346\270"
	.string	"\361n\260\230\f\b\2208\002&x1\b\256\236\367\375\336\357k\367\223X\343\227p\016\3579\3479\317y\317y\337w\225@\202\351\337\353\364/9\007\340)it\001J\331\353"
	.string	")\227\204\016\363?\262\244d\232\300\250T\231t+\250\232f\325\364_v9$\271\357\027\240"
	.ascii	"g\257\223\002\234\210\314\016\b\335\222\254\250\016'v\277\201"
	.ascii	"\214\307\273\f\2760\214\354\330\221\321}\376=\007\373\214\236"
	.ascii	"\261B\241AG\252\250\026!\214\260\ru\304-\\I\256\251%r\344'\371"
	.ascii	"O\207\016\224\"e\t\352\313D\236\336}\244\024\251H\320\\\036\322"
	.ascii	"8t\324\360\247\016\032\317\013\005\231b$x\271L\306\301\335\207"
	.ascii	"K\031\t\371Z\231\310\334\320\364Z\337,\0239:\324_\212T%h+\267"
	.ascii	"\263\357O\231\211C\202\256\262\220\331\374\350\001W6\2251\n\205"
	.ascii	"n\035\235\022\354\305\""
	.string	".`\342\224\231\270|6\377\373\211\217\3218\224\312\032\223\205\002E\271$\330W\0025L-\371f\255\366\311\275\f\032w\f\013K\035\332\217en\364\257W2\351\2741Q(89\356X\271\270\211\251\270s\345\341\262\371\277oO)\225\016\373p\271\320\311\022J\302\215\374+\356\224\224\247\361]8\221}\200\033\0204<\213\313\bgj\231\364y\322\212\320*\351K\244\235\030Gp\321\342\b-*H\377@\332\r\304\350\241\305eZ\314%\3755i/\031U\037\023~\022r\025\tg5\0235L\314c\242\226\211\371L,`b!!\277!\344\"\322\307I\327\211Z\026\223>Ez\211\250\245\236\364\t\322\r\244/\222\0160\372\245\2648M\213\025\"\250Q\200W\np\223\260\257\022$\253\205\177\215\330\330Z\322\203\244\233Y\305\353H8\202\254&j\223\n\275\324\336\200\271U\rs\\\236\345\362<\227\027\271\274\304%\353"
	.ascii	"\260\276\323\267\225$=q-(\221\222\257A\317x:7*ix\005U\210\241"
	.ascii	"+\306\262\223\365Q\272\336\262U\220\031\340Wxo\354\203t\245i"
	.ascii	"\004x\007\236\031\031\303\247cE\030y^>L's\354\322\261\322\252"
	.ascii	"\210\007\3538\207\347\2745rg\304fr\257\2055:\272\315\300V\264"
	.ascii	"\306\177\r\322\231t\302\n\362P\034\313\353\256\341\256\236\253"
	.ascii	"\003wGd\3139w?|\2262X\r\262]\215'\316\253a\030\217\235\261\347"
	.ascii	"\221\215\361\322v8\311\036\333\344#+\213W\335&\375^\333\343'"
	.ascii	"\016\362\233\265\337\250\266\314U\274r\247\311n\274\255\263 "
	.ascii	"?\313 s\276V\304\"\363\2553w\207U\013X=\005\370\356L\240Tl\302"
	.ascii	"\236\364\244\335\252\032\342$\264\350\341\335\t\305r\314\233"
	.ascii	"\222\260kfB\271\264\253\223n\013WKP>.\204i\315\230\317\251"
	.string	"j\005\342\244\327\262/ \027G\024\254\017\273\305D\356\337\260\353YhOD\261'\342\215\363m1\260w\266\211,\242\375\231}O\177\205\226\261\216r\221\313d\230\270?b3,\236\235A\236\301@\351\216\331\351\226\020\320J\367(\375\244\357U\313QO;\023\321\207\354\350\006\036]ofj\241\334\364\303@\346\310\\\177\235\025\264\224\032\305.\205c\306\205\360\205\305\034c\250\304P\242P\035\375\346\3759y\345\377\334\037*\362A\377:\253\200\025<\375R\341\030\357o\266\034\215&)\3000\364>\270\374tH.A4\024\337\331\026T`h9\333\327\325\221\307y\373\214\256\374\017\r\376\321nY\023\001\213\363z\\<\241\253\312=\021\224\356\234\235n5\001y:\263PUL\200N\344\361\017\355}\256\211\241\312r\200\331\276\233\200\264w\371\360f\202+\317sg\360&\310\264g\371\363\334\367\344hR\036\346. K\346"
	.string	"\372a\307\266}k\342\217?m\306\300\354\257\3210\374|/\265\336\016\212\331\217\n\321Q\223\353\244\276\301\303\224\035Ub\243i,\221.\f\036\245\265\314\326fq"
	.string	"\322\303\217\034T\255\372\355\331\357x\001N\361\356^\035xr\303\276\342k\355>9\354>U\305Q\021}\252*y\030\354y6[\017\2272\375\341ZG\t\311\317\3071\236~f\3572\030c\307\211\214\342\002\210\207\243\205\016\036\201X.\2078\271Av`w\217]\373r\346\371\256\016\213g\205Y\006\fc\223\2165\365p\033\017\030\003[t\234g\035Z\376w#\250\233o\311O\343b\247f\2037\302\240\221a\277\227(\313o\220\032\273\276\334b1\277\255t%z\235\354\220T\307\243\361\366DW\2505\2723\274=\256%v\004\303\340\354\320\022Z<\270\336\223\334\236\210j\221PDKj\301\r\276\316\366\267\022\341h\210"
	.ascii	"\241\216d\"\370\202\2673\251%\222!-\022ID;;\203\033=\321\235"
	.ascii	"\021{\265\311G\316X4i\207\277\350nmk\017\357\bu\352\273\242\301"
	.ascii	"\315~\221\272\275#\244%\022ZW\360\245\na\321#*\317;\2673\021"
	.ascii	"\016\025\031\274\311D,Y\262\366\360\265\305\350\025\340d{Rk\243"
	.ascii	"\244.\346H\352\361\350\002\323\021h\214\004\270/\320\336\021"
	.ascii	"hl\213T\302?_\225\f\021"
	.text
	.section	.gnu.lto_get_total_op.d320e5a4783addb0,"",@progbits
	.ascii	"x\234\215R\317k\023Q\020\236y?v\267I\004\213\320kK\251\340\251"
	.ascii	"\250w\301?\"\005=\2055\ri\3245\262\344R=\344m\0231\2649\304\234"
	.ascii	"\304\366`\241%\210\007\357\342\241\202\240\225Z\352\261\267 "
	.ascii	"x\023\317\326\202\353\367\366G\264\236|\2603\363\276\231\357"
	.ascii	"\233\331\341\t\022\364\357\271\206\357\t\340\253\360\354\020"
	.ascii	"\213\301!Q\344\tVi \323\340\255\247\204\354\277'2\005\335u\311"
	.ascii	"\2244\263\305\211\251-\244\322\334\276\311VN\316\323\2661\303"
	.ascii	"\361\243\341\316\364\372\363\276Y\033\307\361l\203\321x\206\251"
	.ascii	"\312t\203\033\314\327\023'\274\263\223$\314\301\336\311\270\307"
	.ascii	"\346\213\031\230_q\214*)\350\322\1772O\267\274A\3243q\334n\260"
	.ascii	"\022t\345\017m.\245\251\263\264Wb\017\323\275\031\035]<\307\344"
	.ascii	"\363"
	.string	"\210\3471\246\317/\340%\007L\032\227]\\\034j\260v\255\361`h\nF\025`d1c\2252\026\216\246.F\231K\361\034\255&\253)\303bue\026pr\211%a\237\362\023\255\355?\035.\370\374\2225\325Yo\322\263\310\230\363\350\363\220~\232\236\215\234\200\255\200\375\005'\033\035\254\3572\3478uH\002\352\254O \027\250\255\327*)\356lL2\036z \237H\274\3269:\205\266(W\310[\032\375\325\246\363 /*\240.Q\353M\324\212\t\312)\3329=\231$J\230\311*\251\\k\211\025\341\301\310\017\364\356k\344\346e\242\2165d\347\230\3302p\027\007\217\361OE\331\337w\217)\225\001\370m\004\260$\177\270VL\333\035~\246h\374\321\311\265\262Ne\004]\327>\364\013A-h\206\253\225[\265{\325\225\300\017\357,Vi\272\265\022\326\374\345J\363~\305\017C\177u\361\262\327j\266\374\273"
	.ascii	"\370\366oy\317\245+"
	.text
	.section	.gnu.lto_exec_threads.d320e5a4783addb0,"",@progbits
	.ascii	"x\234eRMh\023Q\020\376\346\275\375yI\232\304P\360j(\210\036\322"
	.ascii	"\202\322\2037{\324{\nz\322\230\206d\221X\b\275\324\036\372\322"
	.ascii	"\004\314A$\226\026z\264\207\242\242(\350\311\333V\0245PEA\212"
	.ascii	" X\017\305CK\325k=\304y\331\335\246i\007vg\3377\363\315\3147"
	.ascii	"o\005\004\216\332u~.K\340,{\212\201D\373#PW\202\254\340C\006"
	.ascii	"\037\353\312\022\362\356;@\307\355\246\013=d\223kpr\002\277\256"
	.ascii	"\\\341\274zk\342jSq\\\021\031\034\204y!-\333q\025\315_%\323Q"
	.ascii	"\216`U\353\305\255\355g?\305\375%\177E7\375n\227Ny\304\323\235"
	.ascii	"$\024\tW\310#\232\3509\241\006\3075\\\277\355\377\350\334#\375"
	.ascii	"`I/lu\273\314\224\002\331>S[\001u\3428U\267\375\277\235\006\351"
	.ascii	"E]\377\323\355\246=\262\004\316\364\231\331\200h\r\022\237\013"
	.ascii	"\237\333\354~m~\311\r\023\n\364\230Fx\324\300;T%\270\360\310"
	.ascii	"V\374rb|\2448\307\3268\226`\304M\206\211\251\320\247\031T\231"
	.ascii	"\360\300f\243\311Se\013\364\220\317\021Z\354-*\317o\336u\236"
	.ascii	"\004;9I\022|\001r\003\013{\215\337\313\271\002=!\033er\313\304"
	.ascii	"y\214\356\310\bR\214\366\240\275\003(^\346\3135\320\376\001\224"
	.ascii	"\230\303m\036p\024O5\333\254G\261`\210^\275\276}\302\035?l\006"
	.ascii	"\314a_\267\364\t\217\342\3050\213\353\230\235%\0204Q\036\r\231"
	.ascii	">\215V\343\327\362\245\250U\222k\232,+\252<I\026\370\367\220"
	.ascii	"\357\361f\273\356FiT&'j\373\r\001\003\020\217$W\220\255\230\241"
	.ascii	"\331f\025&\232\n\243\326\356f\305\004\034\254^0\273\371\276\362"
	.ascii	"\342\203\210\n\246G\221;\244K\034\022e\037\223\224,\206\t\314"
	.ascii	"3\305S\340\253J\207b\376\365\305d\270\320\0211.\326.\322\240"
	.ascii	"\0261\240\205O)\233\345e\234@\206226\360z'\0345\230p\034/u\213"
	.ascii	"+\263@|F}\253s:\0322\260<\357\274\351\232!\207\253\245\352tm"
	.ascii	"\366\332\215\322\255b\245Z\250\335\034+\"V-\315T\246\247\306"
	.ascii	"\316\235wf*\265Ra\212\274\377\t\316\314\017"
	.text
	.section	.gnu.lto_calculate_mem_perf.d320e5a4783addb0,"",@progbits
	.string	"x\234\225U\315o[E\020\237y\037\266\343\304\211\023\347\2539$i\276[\244\202\004H\034\250\324\023\352\037@%\340\022^\335\360\362J>\212\353\036R$\262\356s\2121\2510Q\016.M\245F($iT\002\244 T\365\340VHPT(9\241\366dU\002!\212*$8\264D\3421\273\373\366\271$\2250+yvw\3467\277\231\235\235\267\326@\203\355c?\375\206#"
	.string	"o\321\214!@\255\360=@&\242\241!\027\272\\\\\213\030\232>\3735"
	.ascii	"\213\232\3310\260:\023\221\353\001aZ\323\r\023\247_FNW\323\003"
	.ascii	"\213\214\025\312K\037n\3422+\025Y\266\344y\330\345 \205nEH\""
	.ascii	"\274\204\016\342\0011i\221\177\347\"}\331\217\013\230sK\354\201"
	.ascii	"\347\205\205_g5~\245Bi!_S\310\263\314\357\236\327\340\240\256"
	.ascii	"\301\236\212\037\223\263\026\177\234#\373\343`nF\305#\277'\253"
	.ascii	"\362c\205\322\347\3713\203\354\302,;U\366<y\304\247\253;b\351"
	.ascii	"\313o\023\205\323*U\362{\276J\277\255\205H!\223c\2367\355\240"
	.ascii	"\241\301\013\025\267n\351f<\326\355a9\207\354.\225"
	.string	"\366o\272\f\007M\013?F\255\232\210s\245\367\027\363\213\217\372\20648\370_\311\256k%\252\310\315\315\354\235\275{t\034G0H\240I\202\220\026^\302\036\210\002\245Q\313E\035\0271.\352I@\003_\305\371\252\221\213&\276M\360U3y\256\223g\013\337\264r\321\306E;\251\227I\275\213o:h\263D\233.\232/\323\334M\363\2474\357&c\270\207\213^\022\241>\022F?g\036 \300\006\001\006\375y\310w\240aB\226J\327-\te\f\013W\205\\\023\362\222\220\353\002\235\024\315\377\"I\3728\016Qm\263a\375\026\314\224\337\233\211Z\370\005\232d|\023\376b9\026w0\222D\201\026\2453\270\341\244\2035\212[\200\035\214\002\334\202\323\345\342O\341\035\376\265I\224\237\261\215\272\215\206\215\246\203u\034>S>\373?\302\255m\013\307\307!\324\201>r\375;8u\2438\327\027\224`C`eaT"
	.ascii	"\n\337u\016>\3100\036$\024\204\213\215\023\207\f\026\363\333"
	.ascii	"\201\330\356\353\026^%7\033w\333\324\252\244r\363\201\252\207"
	.ascii	"\264\034\0376\004\330}7\260\364R\f\233G%\212+\246\322\366\005"
	.ascii	"a\351\360\275\3343\364H$\367\244\302\365\023T\020\346\002\302"
	.ascii	"A\241\035\220Zw\353a`\030\242\264D\201\020T)\f\240\007N\377\006"
	.ascii	"\276\3729\023V0Cd/\307m\030\340\036T\013\355\346\333!\342\326"
	.ascii	"go\204oC\267_g\355\267eR\016\351\017\302\234\314\344\035A\351"
	.ascii	"\255\270\367\346;d\tm\214\210T\370\305\235[\n\355\270\270\372"
	.ascii	"\244\250\244\324\024\031{\326\301\206Nx\345<+\036p0\256\356\201"
	.ascii	"X\034l\024G\277S\\\3364\024w\364\t\330\353`\223\274\347\303\352"
	.ascii	"T\002V\b\022\250U\240\325m \367\214{WW\250:\002\362C5\225\266"
	.ascii	"\256{b\340\264_\301_5\005\212QH\233\367\2418\344\025T\372z\233"
	.ascii	"\367\001\017\373\211\255t\r\"lB\345\206\225\334V\334\213u\n\025"
	.ascii	"'\240\037\346\243@\331(\030\343\222\361\207\t\245nR\214\253;"
	.ascii	"\031?\213)T\202\200\202\361\035\367\250\3225\013\316\204\217"
	.ascii	"\335\232\337\257\f-6//oT\367~p\232V\241\217\370\372\213A\211"
	.ascii	"\332\310\324\001g\351\342\n\277\360w\222\376'\325\240\302\371"
	.ascii	"5=\317[S\342\333\205K\263\257\366\346\237S\206]\"#\025 8_\007"
	.ascii	"Y|\376\013\025\362\271?}r\336B+\325\265Ps'\274*[\250\245\322"
	.ascii	"B\355\242\2058\313ju,\255\235\360\206di\253\260t\370\215x\375"
	.ascii	"\236\337\025\362:\236\201\r\226\243Du\330f\\\333f\334\204Ly\255"
	.ascii	"?x_@>\251H_\016\177\357\022\343#\343\223\251\251\341\303#\023"
	.ascii	"\311\321q+\365\372\276$\204\307\2544m\247\242\351\321\324\344"
	.ascii	"\t{\364\330\211\264y<m\245\322\372\310\304\221Hz2m\215\rO\036"
	.ascii	"\253\221\213\343#I<\332H\310\021\353\bi\207\255T\312\232\332"
	.ascii	"\367\224\331?\366Z\024\342\025\206n\241\210\371\324r\367\017"
	.ascii	"\227&\036\262"
	.text
	.section	.gnu.lto_release_thread_data.d320e5a4783addb0,"",@progbits
	.string	"x\234\225\222=H\303@\024\307\337\273\2465\355\340'\bNJAp\261P\374\030\234\\\335+(\016\341LC[$\266\3048\024\207^\245H\307*\016\242\"8\024\021\021\205\2028\326\311o\305\261[GGg\227\370.\255)\025\301\372 \371_.\357\367\313\345\022\006\f~\326\020\035\2674\275D\211>@Vz\001\310\253\fQ\016"
	.string	"!\3070\267\210\262U\t\303\261\020;\365r\345\006\267w\253{\242Pu\034\034N!i\007\021t\204\005L!\316\272\301\324\366\3474\330\352\341c1T\332\022\371\017\307\351q\301\261\016\301\2436\320\307`\246C\360\262\rT\030\314\375\005^\260j\335q\236j\205\207\361\020\003\216e\f\203ByB\031\240<\245T)\317(\251\374P\020\2424\002\322J\025\243\263\334\272yd2}\317\260y\177M;\306\361\034\375\220@v"
	.string	"\373y!z\351\3557\340S\024\345\310o\272\250\\\214\277\271\210WP\032\004\264\332\002:\272}\322\222\302."
	.ascii	"\351\276\253xj\345w5\376O\255x\352\367\226:\340\251}\036\243"
	.ascii	"\232\310\232j\2653u\300S\027\257<\265\352\251\025\217\t\232\364"
	.ascii	"/6\324\301\316\324\252\253~\203|\2756\372\335\327\250\030\365"
	.ascii	"\320\207\220K\0350\r3me\265ecUO\232\334Z\211\350\320gs+a\330"
	.ascii	"\032\335\3222\266\025\211N\364\255\245\327-\335h\315Lv\333I\313"
	.ascii	"\340q-\316m\036\211N\3657/\323\031\215[\026\317F\242\323_/\027"
	.ascii	"\303\032"
	.text
	.section	.gnu.lto_init_thread_data.d320e5a4783addb0,"",@progbits
	.ascii	"x\234\255TMh\023Q\020\236\331\237&&5M\322\322\320\026j)\b\005"
	.ascii	"!R/\376\200\340UoB\213\n\305\260\335\2064\3244eM\017\305C6M\224"
	.ascii	"`+\304RH\321\213\242E\252H\365b\361\007MA\361'T\255\027)\212"
	.ascii	"\346\322\223 \005\241`/\353\274}\273\033\032\tR\360\301\316\333"
	.ascii	"7\363\276\371\2767;\373\004\020\240v\034\245gM\006\210\323\214"
	.ascii	"\r\200B\341=@\306-\240\304_D\376\262\354"
	.string	"\226\004q\3725\200\356\221s.\320\033eD\346\007\204\264 J2\246\317 K\327\320\r7u}\246\362jiM\272:\273<\247\347J\206\201{\342H\324\255\b*\302i\214#\0363'\301M\210\004V\305pp\351y9\177\242pI\317l\030F\223\211\354\251\203\304Z\344jy1\360\356\306\264>Y1\fNz\244\016T\250\205\376*\337\256\201\036\257\003\025\267C\013\245\307\345,\3523\266^Q\200\201*\262\213#\245\355U\267\200O\246\334\205L^7\214\264\t;\373/\330\242P\"u\317\276\344>\355\357BP\360>v\203L\363<\315n\232\357\320\354\301\004J^\210\243\324\310\214\217\334\013\344\366\223[\016\320b\221\026A\026if\246\205\214\334JF\f1\323\306L;3\035\314t\322\376{\264\237\206\f9R\334\3059y\026`ji\364\221\245\236\350\247\232\346\\\342\007\310U\276\255\007\025|\2102\304P\276"
	.ascii	"[z^\367\307\261A\265\276\027;\231K\237\375\361U$\016*\351\nL"
	.ascii	"\276\375\350\341\200\353p-\243\263\335\273\034\234\207w\bCyL"
	.ascii	"<%\005`4\337\2534\356\377A\20354\034\3643{\253\030\261y\2741"
	.ascii	"\026]\201\354e\321v5\222\227\241\250\336L\226d\373}\177K\242"
	.ascii	"\315\216\224\rW\215\224j\245\274\274=YR\257\205\363\231\244W"
	.ascii	"\262\013!;}\200\205E~\276\030\372y\203\364Ss\322_*\232\262\227"
	.ascii	"\212=\366\346`\214)\330&\273\231\274\216l\212L9\221\026\242\243"
	.ascii	"\270)\263\274\321\304\335\373\340\256N\343\024qr\305\372\311"
	.ascii	"8;z\013\313!\233\344\203\326\357h\2521\325>-\016\330I[I\261S"
	.ascii	"\273\354&\332\376\220\031B^\223\007\276\035\220\331%\r\2319\363"
	.ascii	"\331\027\305\t;i\033e4\313\203`\021>rN\327n\022\266Y\240M\307"
	.ascii	"\337A!\023c\330\003\323\326\227\362\356@\225`\251\352\260?\210"
	.ascii	"\004tO\212o\340\345\372\362\347\262sl\214Y]\306\256_\340b\001"
	.ascii	"\204\274H\322\3049\027\003\312\374o\272X\371=\357\264y\247\323"
	.ascii	"#\273U\207\212w\237D]\356\253\323\345M\016\314\317\257/\206\360"
	.ascii	"[\360N\200U\310T\266\366r\220=\372\250\3009\027\343hND\023Im"
	.ascii	"\"2\030\035U\207\023\2126\022V!\220R\264X4\025\241Pd,\245\205"
	.ascii	"{\017\006\316'\30755Z\365\034\362\245\206\265\2502\024\031RR"
	.ascii	"J\270\367p\320Z&\307\"\212\246)\023\341\003\275\030\367\016\236"
	.ascii	"K\252#\02159>\232\372\003@h\212U"
	.text
	.section	.gnu.lto_main.d320e5a4783addb0,"",@progbits
	.string	"x\234\215\223MO\023Q\024\206\317\271\237c\351g\214\037K\177\200\322\255+\177\005\030]\231ri\312D\212I\221\205q\301\240bHH\224u1\221\215\321\004lM\334\301\006\242\f\232F\210\272p\333\204E\027n\252&.\214\t\236{\207id*\225Iz\356\231sg\336\3679\247w\0300H^W\351\367\205\003\\\244\025=@\266\264\0130\3471\306\353\032\202\224\370\031\002\004i\216:\252\013&wrTW\357\257PY\306e\025'\032\321&\2000\313\270\220J\343\354utFM\266\331>8h\374n\2554\221\237aXE\020\340#H\033\224\ri\n\230\241\300\2626\313\331,o\263\202\315HB\302\203 X\272"
	.string	"`\234\344\bEk6J\233\264\362\017po}\276\371\344R\t\237\241\204\n\212e\250#\351V\220]\243\225\347\243\216\367\340a\267\321\375t\256\247\026%\233\255\355}\232C\364\262A\347P\301\364]\370\025,\004y\037\205AV\302\027\264\3516\204\223\004\260\013K\021 \325\t\340\353\233\215\255\226*\341sG\220!\001W^\337^\f\367e\f&\023`\336`\260\305\360G?X6\001\266\026\203\311\301`\253\216 G\002\207`\255\360s\017L%\300\316\377gb\341?&\226O\200\275\212\301\324`\260\246#(\220\2005\234\357~\377\266\206\2214@OR\031\253\340\344h\266\005\0375\300;x\333\331z\275\313\342&r\316"
	.ascii	"\377:\343\243\364R]sj\243\275\334\031\352\023\365\f\n\367\234"
	.ascii	"\255x>\2362x8\221\236M*\026\022@\037\004w\226\033\2172G-\331"
	.ascii	"\021K\t\217\263\316\362\351\311,\325q\226\n:\227\255\320\312"
	.ascii	"\252>\211\216>NG\273\217d\017\356\267_\356\364\023\r\031\214"
	.ascii	"\216\241o\217\354G\230k7*\321C\256\267\270\257\021\372\233I\306"
	.ascii	"\336\237\256\226\253\267jwn\214\225\247\314D\265T\2739l\340l"
	.ascii	"qf\272V\364\247\314\344\314x\2718}{|\322\037\033\236\200?\264"
	.ascii	"v\377\242"
	.text
	.section	.gnu.lto_.symbol_nodes.d320e5a4783addb0,"",@progbits
	.string	"x\234M\216\271N\0031\020\206\307\366\230\354\231\203\253\241\340\001x\022\236j\"YJ@)@\024\224\b\326\334\367\335\321\020\004T)\241C$i\221\350\350\002\330\353l\274n\276\371f\346\037\231\003\207y\016\356\361\003$\006\353="
	.ascii	"\242\255e\271\203 \t\370!\022L\232|\037\211\027\266\312\344."
	.ascii	"2\263#5r\213\f\205M\354!\211bg\205\361c$,\351\021\222,\351\t"
	.ascii	"\322TIO\221*%=C\n\n}\345\354\034)t\332l2v\211\024y\273@\212\275"
	.ascii	"]#%\336\256\220Ro7HUowH5o\267Huo\367H\215\211\tHAo\277u*\202"
	.ascii	"\027\205H\241\373\371\313\204\250\201\352\375=H\333\320\256\250"
	.ascii	"\202\336\374Z\024A\003\324\350{I\004uP\317O#!\302\024\224\215"
	.ascii	"\204\001d9\307'B\023h\233\200\341p\315Qm\030F\323\240\355\334"
	.ascii	"p8\246\356\217\3352\236u\367\f\273\005\363\376\f\350\216\311"
	.ascii	"'s.o\250\372\216y.\211!k\331y\b\203\326\007\263\314\332?\334"
	.ascii	"\362\361\345}A$\021\f\314\177\340\037\244\240\243i"
	.text
	.section	.gnu.lto_.refs.d320e5a4783addb0,"",@progbits
	.string	"x\234%\210\211\r\200@\020\002\007\366\271\350]G\366\337\227\033\005&\001\214y\370\245\211\214:H\212\036\327<k\270P\336\337\316i[\255RJq\034\306\346\005!\001"
	.ascii	"\331"
	.text
	.section	.gnu.lto_.decls.d320e5a4783addb0,"",@progbits
	.string	"x\234\255Y}\220\024\305\025\357\236\035v\357\270\0178\210@\231(G*Z\321\224\\Re\224T\0219\022\023\255$\345?&U\211\377\214\303\336\334\335\306\275\335cwN%\225*\032\3568.\210\262\034\362\221\222\217\223/\371\220x\210\030\"\"\253\240Pp1x\362Q\370\001\213\226\206\030\250@\0241\305\231\315\353\236\236\331\231\336\236\331\275\213S\365vgz\373\275\367{\277\367\272\247\273WA\n\272\240\"\224\207\253\371&\204n\016!4\032!t\027\310\030\020\370\tm\002\331\f\262\035\344Y\220\275 /\203\274\002\262\037\344U\220\327@\" \007A\016\201\034A\3265\016d"
	.string	"\344-\220\023 \247Ar \027@>\007\271\006\022\302\bU\203\334\002r'\310\317A\356\007\321AZ@\332A\036\306\026\226\371\360\335\005\262\004d)F\236\213\372\240\330\247\203\324\202Ts\374\023\261\205m\031|O"
	.string	"\251\001y\222\353*\\\217\372\247\367os\037\356k`\204v\007\\v\337\224\330\245|L\004\t\273\354.\200>G9\227\323]~\334>\276\016\262\034\244\033[<\257\200\357\225\334\367j\\\310\327\032\316\331\365\360\375\007\220E \213y\333\t\216\355N\316\373(x>\205\274\334\212xO\273p\331x\303\034#m\267c\307\274/\215\373}I\3349\220\261\310\252\023\333\316:\216\213\332\233\001\362"
	.ascii	"\347\366>\370~\032[u\367K\370^\217\255:\374\005\267\031\342\366"
	.ascii	"\356\347uC}\236\007\371\330\353\222\325\333$\220\357\272|Nt\371"
	.ascii	"\234\216\212s\271\001\344\034*\360j\3279\345\265\236\347\301"
	.ascii	"\036\003\366\230\240\376'c\213s\225\373\245<S\214\267\360\266"
	.ascii	"\177\203|\n\362\231\204\033:&h\255\035\025j\202\342\243\271\336"
	.ascii	"\b\367\263x\376\335\265F\365tn\177)\317a\227$\207t\274\325q\216"
	.ascii	"\335\265\034\341~6ak\f\317\346uH}\332\265\266\031\244\225c\241"
	.ascii	"\276)\367\356\272\nq\373\355|\334\206eX@\260\200\211\216\377"
	.ascii	"\032\036\263]O\324\3573\320\376\b\310\026\220!x\336\212\255\232"
	.ascii	"\271\b\262\r\356\257r\375Jnc;\237'\256q\336i\215\323"
	.string	"\261=\300\371\241n+\005\337Uh\021!\363I_\027\351\301\363v~\243\016e\b\\\365\253j+Q\017\275\313n \223\240n~\215u\fM\025\354\246\272\222\231\272\tm\204\016\320_\321\3613\270\022\322\240\b\306\355\313\372\235^T\235\336\223<\277\360\\\273i\256\343%\213m7\223\270\372f\\\307#e\240l\264\254\017Wj\264u*\270\3166\227\313\352\312\302\315D\016\312Oo\023\256\362!G\3073\252|\325\266K\324\272\230\332x\324\313@\023\202{>\304\205(C\266\211i6\231\231\334s\037^\n\021R\301U\352\375\373\353\370O\370&T\272\237BG\235\216\373\361xt+\332j\345k\376\215\236\354Xy\314\346oP\254~\324\370\363\370VY\"\247\240>\332uY\367bLr9\\\250\026+\205R\004\324\334\356\021\344\357E\237\374\335\311\261(h\206\035\231\324\257\243\347J\2667\214\345\335O\324\221\276\305"
	.string	"#L\253\367\247\2029\017\242"
	.ascii	"k\2562\247\264\351x\027dF\307/\340)\360\271\007>]\035vb\305\303"
	.ascii	"\256\315\270\253\013m\260\273H\255\310\t+\252\325\035>\221P\253"
	.ascii	"/\025\212\225_\276\363\200'\263\255\266\241\032n\350\345\021"
	.ascii	"$v\237Ob\253\003\343\323\361^\337\201\311\321fU\001.q&\222\261"
	.ascii	"\334\306\376\021\340\315\372\340\035S\002\357+\245\360\212\354"
	.ascii	"~\333\2660\212[xm\004h\017\370\240UK\240}\265\200\226\271+\240"
	.ascii	"\225\353\360\tk_\367\311O\361|\230\332t|\220\275\003\026b,Tx"
	.ascii	"\3043R\330\263\335\201\332\213T\026n\362\316k\241\210\263\th"
	.ascii	"9\313q'\370\232\355\236\211=\357$j\3770\236\300\356Bla\200X_"
	.ascii	"\035\377&\344@\360\243\340\220o\302\212\006\227+kEf\216\342*"
	.ascii	"7\003~\335\216\024\274MFkI\356rn\337\242\253uO\220\354<x9\316"
	.ascii	"\345q(\260\340\363\362\371-\264\201\220^\362\356\335=!\026\231"
	.ascii	"\202\372Y\217\001<Y\352\212u\202\353f\264\211\206\260\241k\301"
	.ascii	"\330I\274\315_\211C\374+V\334\251\263`f\237_\030\351'\271|~\262"
	.ascii	"\r\361E9\304\3236D\035\377\215M{o\215\004\242\237\022\2078(\201"
	.ascii	"x){\374\007\253\310\245|~\214\215\360\200\034\341\373\"\302\023"
	.ascii	"#A\350\247\304\021\236\224\"\274\262\312\"q]\226T\b\245\035\256"
	.ascii	"\364-\355w\304\322V+\275\245\255\240\267d\241f\310\331\306{Y"
	.ascii	"o\005\235a\035N\027@\327\273\247\b\326\311\216\224\220\035V\244"
	.ascii	"\341J\366\323\351\340H\337\223F\372\316\"^.B\230w]\347\033\346"
	.ascii	"9\311\bv\207,0\300\276=$\374C\236\357+\205A\3639\353\221\013"
	.ascii	"\3147\247n\315\314{9\321gX\221\344\002\251cJ\204\274?\323\346"
	.ascii	"\373K\321S\020\337\217\223\005c1\343\006q%\327\245\343\217\244"
	.ascii	"\f\257\030>\303\027E\206\351\3347,\212{\024)\305\313~B)>\304"
	.ascii	"\246\300\2773\272.\370r\314\346[N\362\273\002\311\027J\223\234"
	.ascii	"!OuWd0W\373\244\f5\037\232/\2104_\226\323\374\3300i.?\035_\360"
	.ascii	"t\024_\nzJ \332\t\202l!!'\206\317\305\030\376#\215\341\205\341"
	.ascii	"\306\240\343!\311\234\023\\\032\317\311J#C\2566zS|\255\234\024"
	.ascii	"\377\331\251\213O\312P\362I\3605\221\234|19}\271\354\265\243"
	.ascii	")\322M\206\362\371\220\230:\325\177J\356R\002\350\341\357x\017"
	.ascii	"?:~@)\246\207\220}\316\f\235e\374u*%\351\261g4\352FA\257\213"
	.ascii	"j\302p\343`8C\217\301\314\256r\326\374\235\025\020\213\265\324"
	.ascii	"\237\333\275\342\324\353\370\334\274>\353U;\f\312\036\367R\306"
	.ascii	"W\267\244\213\334{\270\026IaX\213\315\354\3257&\020\300\274D"
	.ascii	"\241,\235\025\252\254l3\271]+\317\f\342N\266f\355e\246\272B\342"
	.ascii	"\232U\025\326\254\252w\315\n\217\324\325\027\205\023\f\325Z\274"
	.ascii	"F\320\210\3658\033\302Rs\034Zjmm\334[|\357\276FA\031\206\177"
	.ascii	"\2452\216;\263v\364\220\240\241yx\036\213\223\376Vz_\177e\341"
	.ascii	"\022\266!\026\366\033\201\033\200]+O\256\347d>\305\310\374c\021"
	.ascii	"\231a\201\314\260\227\224\260E\n\273,R\302\205\235\300\\\032"
	.ascii	"\337z'\276an\315\255\270r\273O~y\031\367\316'=\235\221\341\205"
	.ascii	"6\324\213\273Xh},\264\255_}h{\207\035Z\243\220;\277\375\305\n"
	.ascii	"\305\275\307\027\246\350\003\236HX\351\301\322\221\036\"\332"
	.ascii	"\017\357\204\304\303<\035oT\212\347\201Ln\315\272\213\256y\240"
	.ascii	"\223\034k(g*\340n\206B\330\256|>\034\260\013Q\227\352\374\252"
	.ascii	"\240\307T\377\256N\223\007 \003\275\315;\333\b\343\3139\346\314"
	.ascii	"NZU\2305<S\226\216\267\260\003\235a\235a\026\245c\267\"\036\271"
	.ascii	"@\343NE\361\037\224.\222\373s'>8\366\221\233\344\276\357\224"
	.ascii	"\263!\3464n\2250'\247\215\265\352\370Y;\321\334\300\356\202\201"
	.ascii	"\033\321>u\r\251\360\202\324\361\036\3615\350^\262\317\254\362"
	.ascii	"\374t\020{\327\227\354-\355\\\n\332\257J\212\363\r\325U\234o"
	.ascii	"\252>'\315.\3162\271S\037\037\236\261z5\351\352$\377\315\317"
	.ascii	"\305\345\277\237\006$\357\2472\217C\226\234\275\201\276\241\336"
	.ascii	"d\323\305?\325\257\350(\304aj\273d=\241\240+\252\270B"
	.string	"\264:\rJ\206k?\260\222\375\341\360X\341E\361\022\230\013\256\242\220\327\377q\237\221\327\305\017Q(K\362\341Rt\336\342\337\0256\305E#\313\341\353Y\354\255\274C\236\347\"@\205Up\221\223\031U\002\305B\016\346\217*\252Y\2307\274\t\320\361YiF\336\376\344\330\357\327\330\031\331I\310\236H\371\253\363\017$\343N\200\266E\006m3C\"\307)^\026\314\354\251\265Kj\3119\222\315\347\367/\256\310\266\225\177 w^\304H'"
	.ascii	"q6\020@\357\220\201>\354\006}D\230\243^\030UzN\350\317\016\256"
	.ascii	"]H\260u\362\322\255\022\265\374 .\313\202\020\026\366\377\362"
	.ascii	"L\347\245A[\032\245A\237=\372$g~\206\270\314\226\036\026\005"
	.ascii	"\f\330\002\330\253%F\347\213\001C\316\3652\363S\247\247\240e"
	.ascii	"\034}\272\031\225n&\367\216\240za\203\347m\373&z\232\364\r\346"
	.ascii	"\366\035Y\022^J\262\253\262\224J<Y\307\323\351\276\3515\307\203"
	.ascii	"\037\336\316\220\342\265\224\275|\254\"\323\235a\357b\371\202"
	.ascii	"\275\336\265\007y\320\266"
	.string	"W\315\"\032d\376\272C\336\325z\366\324\203\365Vk\351u\372\273\253+2\263=\333b\252'\333\361\224\\\033g\337k<<\215/\001r\016\260rM\325{L\235)\230\372h\330\246\032\205P\375r\261 \344\324\216\202\316\227L\335\023E\251\033\274\273\247\263\207n\301\"V\221*\350\263\222V2EV\216\025Y\351\f\227\262\322[\260R\364\202\243{b?\275e!\377\177\244\247\373\217\262'\003\324(\213~z\313\003\364\366\004\300\\Q\320+gZ\325\361_\224\020S\\\031\022\246\3263J\225\357\274\362#\377w\364L\351\254\"{\277\024\305\265- \256\325\276qIWK\260J\343q\255\021\343\272\346Z\251\330\377\001\302\276\336\263\274!\252m\252\221\373_\027\032\376\277\200}!\371\277\200\366\371D\021\001\307\003\bx:\240 \006\002\364\326\007\350\321#~?\275\r\001z\037\004\370\333\030\240w9@oS\200\336\371"
	.string	"\275\315\001zW\003\364\236\t\320\033\n\340eK\200\336\305"
	.string	"\275\255A8\003\364\266\025\364\234\225\352\245\2379\233\320\276\236\360\377\271{\260/X\250\213C\205\2560\204\225@oX\262-\\\031v\266\205\366\262"
	.ascii	"IW\006\374\300t=!u\3302\257\240>fq{\310\357\304\224/s\370\211"
	.ascii	"i\337\026R\351\034\230\272\224d\007\246\375\205\251\236]j\264"
	.ascii	"UOMi\350H\247\032b\211h\274\243\311h\230\0253\323\r\355fk\312"
	.ascii	"\320\233\3149\355Fzj+\252\345\317\232n\232)\315\f\337s\337\257"
	.ascii	"\352\177\214\302"
	.string	"\232\226\216\375\316\210h\232\036\217\265$\24613\361\330\254\206\226h\264\341\321iwhw\334~[\312hj\325\315\333\342\261D\307\243\r\267O\2356\365\373\216\243\264\331\324d4\203\3650\265\242\231\343\333\214\266dj\2166\313HD[\333\364\324CS\243\250&\245'\232\264GR1\323\320\222\355\243\332\365\224\336V\2356f;M5\f\226\375T\335b\230\232\2314\3658<\214N$5\013v\272\332x\324\210\332\017\3416\303lM6\215\236\025OF\037b\021\214\213\352\361hG\\\007\033\200Ak7R\315\343SF\334\320\323\006W\322\232tS\037\033K\304Lw\203\252\247Z\242\364\343\341\257y(4cm\006\304U\031\245\036bM\232y}1\3036\265U\232\346t\253\240\212\351v#Z\241i\364\026\2306\037\326\322F\264\016\230\236\223\006\224q-\035O&Z43\002?$\340\227\032\246\254A\334T\001\364"
	.ascii	"u\263\246\201\325D\022\220&\037\321\264\353<\316\201\365X\022"
	.ascii	"\374F\022\311D\242#\036\0177'Sm\272\031nO\305\022f\363\004\241"
	.ascii	"/4\266X ywM\2134'\352)F\374= \262-\332>'\302=\251\324\365D\217"
	.ascii	"\001^6\224\013\273\202\314j\373\356\267\311X\302)\254(|\232\206"
	.ascii	"\350\276\t\252\t\224\325\346\224a\204i\370\311h\270\315\372\002"
	.ascii	"lf2>\206\253'\3335=\225\322\347\324\270\262\243\231\240\227l"
	.ascii	"S\314d\225\253\2656\235\354HEy\242\315T\255\t\351\203\242\341"
	.ascii	"\217\252n&c\300b{G\312\3204(\360\0044\376\017\300)4\373"
	.text
	.section	.gnu.lto_.symtab.d320e5a4783addb0,"",@progbits
	.string	"seq_write_op"
	.string	""
	.string	""
	.string	""
	.string	""
	.string	""
	.string	""
	.string	""
	.string	""
	.string	""
	.string	""
	.string	""
	.string	"\321"
	.string	""
	.string	""
	.string	"thread_op_array"
	.string	""
	.string	"\004"
	.string	"\b"
	.string	""
	.string	""
	.string	""
	.string	""
	.string	""
	.string	""
	.string	"\202\001"
	.string	""
	.string	"rand_write_op"
	.string	""
	.string	""
	.string	""
	.string	""
	.string	""
	.string	""
	.string	""
	.string	""
	.string	""
	.string	""
	.string	""
	.string	"\314"
	.string	""
	.string	""
	.string	"read_write_op"
	.string	""
	.string	""
	.string	""
	.string	""
	.string	""
	.string	""
	.string	""
	.string	""
	.string	""
	.string	""
	.string	""
	.string	"\325"
	.string	""
	.string	""
	.string	"thread_data"
	.string	""
	.string	"\004"
	.string	"\b"
	.string	""
	.string	""
	.string	""
	.string	""
	.string	""
	.string	""
	.string	"\204\001"
	.string	""
	.string	"source_mem_ptr"
	.string	""
	.string	"\004"
	.string	"\b"
	.string	""
	.string	""
	.string	""
	.string	""
	.string	""
	.string	""
	.string	"\217\001"
	.string	""
	.string	"target_mem_ptr"
	.string	""
	.string	"\004"
	.string	"\b"
	.string	""
	.string	""
	.string	""
	.string	""
	.string	""
	.string	""
	.string	"\221\001"
	.string	""
	.string	"get_total_op"
	.string	""
	.string	""
	.string	""
	.string	""
	.string	""
	.string	""
	.string	""
	.string	""
	.string	""
	.string	""
	.string	""
	.string	"\331"
	.string	""
	.string	""
	.string	"exec_threads"
	.string	""
	.string	""
	.string	""
	.string	""
	.string	""
	.string	""
	.string	""
	.string	""
	.string	""
	.string	""
	.string	""
	.string	"\340"
	.string	""
	.string	""
	.string	"calculate_mem_perf"
	.string	""
	.string	""
	.string	""
	.string	""
	.string	""
	.string	""
	.string	""
	.string	""
	.string	""
	.string	""
	.string	""
	.string	"\354"
	.string	""
	.string	""
	.string	"release_thread_data"
	.string	""
	.string	""
	.string	""
	.string	""
	.string	""
	.string	""
	.string	""
	.string	""
	.string	""
	.string	""
	.string	""
	.string	"\366"
	.string	""
	.string	""
	.string	"init_thread_data"
	.string	""
	.string	""
	.string	""
	.string	""
	.string	""
	.string	""
	.string	""
	.string	""
	.string	""
	.string	""
	.string	""
	.string	"\373"
	.string	""
	.string	""
	.string	"main"
	.string	""
	.string	""
	.string	""
	.string	""
	.string	""
	.string	""
	.string	""
	.string	""
	.string	""
	.string	""
	.string	""
	.string	"\003\001"
	.string	""
	.string	"clock_gettime"
	.string	""
	.string	"\002"
	.string	""
	.string	""
	.string	""
	.string	""
	.string	""
	.string	""
	.string	""
	.string	""
	.string	"\f\001"
	.string	""
	.string	"pthread_join"
	.string	""
	.string	"\002"
	.string	""
	.string	""
	.string	""
	.string	""
	.string	""
	.string	""
	.string	""
	.string	""
	.string	"K\001"
	.string	""
	.string	"pthread_create"
	.string	""
	.string	"\002"
	.string	""
	.string	""
	.string	""
	.string	""
	.string	""
	.string	""
	.string	""
	.string	""
	.string	"S\001"
	.string	""
	.string	"strtol"
	.string	""
	.string	"\002"
	.string	""
	.string	""
	.string	""
	.string	""
	.string	""
	.string	""
	.string	""
	.string	""
	.string	"v\001"
	.string	""
	.text
	.section	.gnu.lto_.opts,"",@progbits
	.string	"'-mtune=generic' '-march=x86-64' '-O2' '-flto'"
	.text
	.p2align 4,,15
	.globl	seq_write_op
	.type	seq_write_op, @function
seq_write_op:
.LFB547:
	.cfi_startproc
	pushq	%rbx
	.cfi_def_cfa_offset 16
	.cfi_offset 3, -16
	subq	$16, %rsp
	.cfi_def_cfa_offset 32
	movslq	(%rdi), %rbx
	salq	$2, %rbx
	.p2align 4,,10
	.p2align 3
.L2:
	movq	%rsp, %rsi
	xorl	%edi, %edi
	call	clock_gettime
	movq	%rbx, %rax
	addq	thread_op_array(%rip), %rax
	addl	$1, (%rax)
	jmp	.L2
	.cfi_endproc
.LFE547:
	.size	seq_write_op, .-seq_write_op
	.p2align 4,,15
	.globl	rand_write_op
	.type	rand_write_op, @function
rand_write_op:
.LFB548:
	.cfi_startproc
	pushq	%rbx
	.cfi_def_cfa_offset 16
	.cfi_offset 3, -16
	subq	$16, %rsp
	.cfi_def_cfa_offset 32
	movslq	(%rdi), %rbx
	salq	$2, %rbx
	.p2align 4,,10
	.p2align 3
.L6:
	movq	%rsp, %rsi
	xorl	%edi, %edi
	call	clock_gettime
	movq	%rbx, %rax
	addq	thread_op_array(%rip), %rax
	addl	$1, (%rax)
	jmp	.L6
	.cfi_endproc
.LFE548:
	.size	rand_write_op, .-rand_write_op
	.section	.rodata.str1.1,"aMS",@progbits,1
.LC0:
	.string	"thread %d total op %ld\n"
	.text
	.p2align 4,,15
	.globl	read_write_op
	.type	read_write_op, @function
read_write_op:
.LFB546:
	.cfi_startproc
	pushq	%r15
	.cfi_def_cfa_offset 16
	.cfi_offset 15, -16
	pushq	%r14
	.cfi_def_cfa_offset 24
	.cfi_offset 14, -24
	pushq	%r13
	.cfi_def_cfa_offset 32
	.cfi_offset 13, -32
	pushq	%r12
	.cfi_def_cfa_offset 40
	.cfi_offset 12, -40
	pushq	%rbp
	.cfi_def_cfa_offset 48
	.cfi_offset 6, -48
	xorl	%ebp, %ebp
	pushq	%rbx
	.cfi_def_cfa_offset 56
	.cfi_offset 3, -56
	movq	%rdi, %rbx
	subq	$56, %rsp
	.cfi_def_cfa_offset 112
	leaq	32(%rsp), %rsi
	movq	%rdi, 24(%rsp)
	xorl	%edi, %edi
	call	clock_gettime
	movq	32(%rsp), %rax
	addq	$20, %rax
	movq	%rax, 8(%rsp)
	movslq	%ebx, %rax
	leaq	(%rax,%rax,2), %rdx
	movq	%rax, 16(%rsp)
	movq	thread_data(%rip), %rax
	leaq	(%rax,%rdx,4), %rax
	movq	target_mem_ptr(%rip), %rdx
	movslq	(%rax), %rbx
	movl	4(%rax), %r12d
	movl	8(%rax), %eax
	imull	%ebx, %r12d
	addl	$1, %eax
	imull	%ebx, %eax
	movslq	%r12d, %r12
	movq	%r12, %r14
	leal	-1(%rax), %r13d
	addq	source_mem_ptr(%rip), %r14
	leaq	(%rdx,%r12), %r15
	movslq	%r13d, %r13
	addq	%rdx, %r13
	.p2align 4,,10
	.p2align 3
.L12:
	movq	%r14, %rsi
	movq	%r15, %rdi
	movq	%rbx, %rdx
	call	memcpy
	leaq	32(%rsp), %rsi
	xorl	%edi, %edi
	addq	%rbx, %r15
	addq	%rbx, %r14
	call	clock_gettime
	cmpq	%r15, %r13
	ja	.L10
	movq	%r12, %r15
	movq	%r12, %r14
	addq	target_mem_ptr(%rip), %r15
	addq	source_mem_ptr(%rip), %r14
.L10:
	addq	$1, %rbp
	movq	8(%rsp), %rax
	cmpq	32(%rsp), %rax
	jg	.L12
	movq	thread_op_array(%rip), %rax
	movq	16(%rsp), %rcx
	movl	%ebp, %edx
	movl	24(%rsp), %esi
	movl	$.LC0, %edi
	movl	%ebp, (%rax,%rcx,4)
	xorl	%eax, %eax
	call	printf
	addq	$56, %rsp
	.cfi_def_cfa_offset 56
	popq	%rbx
	.cfi_def_cfa_offset 48
	popq	%rbp
	.cfi_def_cfa_offset 40
	popq	%r12
	.cfi_def_cfa_offset 32
	popq	%r13
	.cfi_def_cfa_offset 24
	popq	%r14
	.cfi_def_cfa_offset 16
	popq	%r15
	.cfi_def_cfa_offset 8
	ret
	.cfi_endproc
.LFE546:
	.size	read_write_op, .-read_write_op
	.p2align 4,,15
	.globl	get_total_op
	.type	get_total_op, @function
get_total_op:
.LFB545:
	.cfi_startproc
	testl	%edi, %edi
	jle	.L17
	movq	thread_op_array(%rip), %rsi
	xorl	%edx, %edx
	xorl	%eax, %eax
	.p2align 4,,10
	.p2align 3
.L16:
	movslq	(%rsi,%rdx,4), %rcx
	addq	$1, %rdx
	addq	%rcx, %rax
	cmpl	%edx, %edi
	jg	.L16
	rep ret
.L17:
	xorl	%eax, %eax
	ret
	.cfi_endproc
.LFE545:
	.size	get_total_op, .-get_total_op
	.p2align 4,,15
	.globl	exec_threads
	.type	exec_threads, @function
exec_threads:
.LFB550:
	.cfi_startproc
	testl	%esi, %esi
	jle	.L26
	pushq	%r14
	.cfi_def_cfa_offset 16
	.cfi_offset 14, -16
	leal	-1(%rsi), %r14d
	pushq	%r13
	.cfi_def_cfa_offset 24
	.cfi_offset 13, -24
	leaq	1(%r14), %r13
	pushq	%r12
	.cfi_def_cfa_offset 32
	.cfi_offset 12, -32
	movq	%rdi, %r12
	pushq	%rbp
	.cfi_def_cfa_offset 40
	.cfi_offset 6, -40
	pushq	%rbx
	.cfi_def_cfa_offset 48
	.cfi_offset 3, -48
	xorl	%ebx, %ebx
	subq	$64, %rsp
	.cfi_def_cfa_offset 112
	movq	%rsp, %rbp
	.p2align 4,,10
	.p2align 3
.L21:
	movq	%rbx, %rcx
	xorl	%esi, %esi
	movq	%rbp, %rdi
	movq	%r12, %rdx
	addq	$1, %rbx
	addq	$8, %rbp
	call	pthread_create
	cmpq	%r13, %rbx
	jne	.L21
	leaq	8(%rsp,%r14,8), %rbp
	movq	%rsp, %rbx
	.p2align 4,,10
	.p2align 3
.L23:
	movq	(%rbx), %rdi
	xorl	%esi, %esi
	addq	$8, %rbx
	call	pthread_join
	cmpq	%rbp, %rbx
	jne	.L23
	addq	$64, %rsp
	.cfi_def_cfa_offset 48
	popq	%rbx
	.cfi_restore 3
	.cfi_def_cfa_offset 40
	popq	%rbp
	.cfi_restore 6
	.cfi_def_cfa_offset 32
	popq	%r12
	.cfi_restore 12
	.cfi_def_cfa_offset 24
	popq	%r13
	.cfi_restore 13
	.cfi_def_cfa_offset 16
	popq	%r14
	.cfi_restore 14
	.cfi_def_cfa_offset 8
.L26:
	rep ret
	.cfi_endproc
.LFE550:
	.size	exec_threads, .-exec_threads
	.section	.rodata.str1.1
.LC2:
	.string	"%lf\n"
.LC4:
	.string	"throughput %lf\n"
.LC6:
	.string	"latency %lf\n"
	.text
	.p2align 4,,15
	.globl	calculate_mem_perf
	.type	calculate_mem_perf, @function
calculate_mem_perf:
.LFB549:
	.cfi_startproc
	pushq	%r12
	.cfi_def_cfa_offset 16
	.cfi_offset 12, -16
	movq	%rdi, %r12
	xorl	%edi, %edi
	pushq	%rbp
	.cfi_def_cfa_offset 24
	.cfi_offset 6, -24
	movl	%edx, %ebp
	pushq	%rbx
	.cfi_def_cfa_offset 32
	.cfi_offset 3, -32
	movl	%esi, %ebx
	subq	$48, %rsp
	.cfi_def_cfa_offset 80
	leaq	16(%rsp), %rsi
	call	clock_gettime
	movl	%ebp, %edx
	movl	%ebx, %esi
	movq	%r12, %rdi
	call	exec_threads
	leaq	32(%rsp), %rsi
	xorl	%edi, %edi
	call	clock_gettime
	testl	%ebx, %ebx
	jle	.L31
	movq	thread_op_array(%rip), %rsi
	xorl	%eax, %eax
	xorl	%ecx, %ecx
	.p2align 4,,10
	.p2align 3
.L30:
	movslq	(%rsi,%rax,4), %rdi
	addq	$1, %rax
	addq	%rdi, %rcx
	cmpl	%eax, %ebx
	jg	.L30
	cvtsi2sdq	%rcx, %xmm2
	movsd	%xmm2, (%rsp)
.L28:
	movsd	(%rsp), %xmm0
	movl	$.LC2, %edi
	movl	$1, %eax
	call	printf
	cvtsi2sdq	32(%rsp), %xmm0
	movq	24(%rsp), %rcx
	movabsq	$4835703278458516699, %rdx
	movl	$.LC4, %edi
	movq	%rcx, %rax
	imulq	%rdx
	movq	%rcx, %rax
	sarq	$63, %rax
	sarq	$18, %rdx
	subq	%rdx, %rax
	addq	40(%rsp), %rax
	cvtsi2sdq	%rax, %xmm1
	movl	$1, %eax
	addsd	%xmm0, %xmm1
	cvtsi2sdq	16(%rsp), %xmm0
	subsd	%xmm0, %xmm1
	cvtsi2sd	%ebp, %xmm0
	movsd	%xmm1, 8(%rsp)
	mulsd	(%rsp), %xmm0
	mulsd	.LC3(%rip), %xmm0
	divsd	%xmm1, %xmm0
	call	printf
	movsd	8(%rsp), %xmm1
	movl	$.LC6, %edi
	movsd	.LC5(%rip), %xmm0
	movl	$1, %eax
	divsd	(%rsp), %xmm1
	mulsd	%xmm1, %xmm0
	call	printf
	addq	$48, %rsp
	.cfi_remember_state
	.cfi_def_cfa_offset 32
	popq	%rbx
	.cfi_def_cfa_offset 24
	popq	%rbp
	.cfi_def_cfa_offset 16
	popq	%r12
	.cfi_def_cfa_offset 8
	ret
.L31:
	.cfi_restore_state
	xorpd	%xmm3, %xmm3
	movsd	%xmm3, (%rsp)
	jmp	.L28
	.cfi_endproc
.LFE549:
	.size	calculate_mem_perf, .-calculate_mem_perf
	.p2align 4,,15
	.globl	release_thread_data
	.type	release_thread_data, @function
release_thread_data:
.LFB551:
	.cfi_startproc
	subq	$8, %rsp
	.cfi_def_cfa_offset 16
	movq	target_mem_ptr(%rip), %rdi
	call	free
	movq	source_mem_ptr(%rip), %rdi
	call	free
	movq	thread_data(%rip), %rdi
	call	free
	movq	thread_op_array(%rip), %rdi
	addq	$8, %rsp
	.cfi_def_cfa_offset 8
	jmp	free
	.cfi_endproc
.LFE551:
	.size	release_thread_data, .-release_thread_data
	.p2align 4,,15
	.globl	init_thread_data
	.type	init_thread_data, @function
init_thread_data:
.LFB552:
	.cfi_startproc
	pushq	%r12
	.cfi_def_cfa_offset 16
	.cfi_offset 12, -16
	pushq	%rbp
	.cfi_def_cfa_offset 24
	.cfi_offset 6, -24
	movl	%edi, %ebp
	movl	$1000000000, %edi
	movslq	%ebp, %r12
	pushq	%rbx
	.cfi_def_cfa_offset 32
	.cfi_offset 3, -32
	movl	%esi, %ebx
	call	malloc
	movl	$1000000000, %edi
	movq	%rax, target_mem_ptr(%rip)
	call	malloc
	leaq	(%r12,%r12,2), %rdi
	movq	%rax, source_mem_ptr(%rip)
	salq	$2, %rdi
	call	malloc
	movq	%rax, %rcx
	movq	%rax, thread_data(%rip)
	movl	$1000000000, %eax
	cltd
	idivl	%ebx
	testl	%ebp, %ebp
	jle	.L37
	cltd
	xorl	%r8d, %r8d
	idivl	%ebp
	leal	-1(%rbp), %edx
	leaq	(%rdx,%rdx,2), %rdx
	leaq	12(%rcx,%rdx,4), %rsi
	leal	-1(%rax), %edx
	.p2align 4,,10
	.p2align 3
.L38:
	leal	(%rdx,%r8), %r9d
	movl	%r8d, 4(%rcx)
	movl	%ebx, (%rcx)
	addq	$12, %rcx
	addl	%eax, %r8d
	movl	%r9d, -4(%rcx)
	cmpq	%rsi, %rcx
	jne	.L38
.L37:
	movq	%r12, %rdi
	movl	$4, %esi
	call	calloc
	popq	%rbx
	.cfi_def_cfa_offset 24
	popq	%rbp
	.cfi_def_cfa_offset 16
	movq	%rax, thread_op_array(%rip)
	popq	%r12
	.cfi_def_cfa_offset 8
	ret
	.cfi_endproc
.LFE552:
	.size	init_thread_data, .-init_thread_data
	.section	.text.startup,"ax",@progbits
	.p2align 4,,15
	.globl	main
	.type	main, @function
main:
.LFB553:
	.cfi_startproc
	pushq	%r12
	.cfi_def_cfa_offset 16
	.cfi_offset 12, -16
	movl	$10, %edx
	pushq	%rbp
	.cfi_def_cfa_offset 24
	.cfi_offset 6, -24
	pushq	%rbx
	.cfi_def_cfa_offset 32
	.cfi_offset 3, -32
	movq	16(%rsi), %rdi
	movq	%rsi, %rbx
	xorl	%esi, %esi
	call	strtol
	movq	8(%rbx), %rdi
	xorl	%esi, %esi
	movl	$10, %edx
	movq	%rax, %rbp
	call	strtol
	movq	24(%rbx), %rdi
	movl	$10, %edx
	xorl	%esi, %esi
	movq	%rax, %r12
	call	strtol
	movl	%ebp, %edi
	movl	%eax, %esi
	movq	%rax, %rbx
	call	init_thread_data
	cmpl	$1, %r12d
	movl	%ebx, %edx
	movl	%ebp, %esi
	je	.L46
	cmpl	$2, %r12d
	je	.L47
	movl	$rand_write_op, %edi
	call	calculate_mem_perf
.L43:
	xorl	%eax, %eax
	call	release_thread_data
	popq	%rbx
	.cfi_remember_state
	.cfi_def_cfa_offset 24
	popq	%rbp
	.cfi_def_cfa_offset 16
	xorl	%eax, %eax
	popq	%r12
	.cfi_def_cfa_offset 8
	ret
.L47:
	.cfi_restore_state
	movl	$seq_write_op, %edi
	call	calculate_mem_perf
	jmp	.L43
.L46:
	movl	$read_write_op, %edi
	call	calculate_mem_perf
	.p2align 4,,3
	jmp	.L43
	.cfi_endproc
.LFE553:
	.size	main, .-main
	.comm	thread_data,8,8
	.comm	source_mem_ptr,8,8
	.comm	target_mem_ptr,8,8
	.comm	thread_op_array,8,8
	.section	.rodata.cst8,"aM",@progbits,8
	.align 8
.LC3:
	.long	0
	.long	1051721728
	.align 8
.LC5:
	.long	0
	.long	1093567616
	.comm	__gnu_lto_v1,1,1
	.ident	"GCC: (GNU) 4.8.5 20150623 (Red Hat 4.8.5-11)"
	.section	.note.GNU-stack,"",@progbits
