	.file	"test.c"
	.section	.gnu.lto_.jmpfuncs.ea6356b5c460b166,"",@progbits
	.string	"x\234cb`b\300\006\272\031\031\030d\2004;\003P\00133P\021S\004c&#H\212\005\312f\204*ea`e\004\211U3\374j\230\321 \220\311\310$\307\3008\267a\206C&#3X\001\210,\0031\230\300\372X\030 l\220\372\016\220z\326dFdu\310\252\330)6\231\021\207\311\034L\2140\245`\243\331\344\030x F\263CL\201\313p\3101\bCd8\3012\250\372\270\344\030\304!\262\334\004\3641C\303\215\207\001\312`\341\"E\220\201K5EAA5''\215\213\201\315\315\307? \230\2019Q\233\201\325\023\304\002"
	.ascii	"w\322>\233"
	.text
	.section	.gnu.lto_.inline.ea6356b5c460b166,"",@progbits
	.string	"x\234cb`b\300\006\214\031!4;\303\033\206\313\f\247Y\030\031\230\0260.\332\346\316\300\266@\036\254\203\351\006\343m\206\036V\240\370\006\306k+\374\341\342\314\007\030\20461121\200\f`\004\021L|\207z8 \362\034 \005<@=\023\374\030X\371\030\031X\200\364\004\277\t~,\f\314L\214`\227\300\214aU\220=\t4\202I\354\300\016&\270 \033?\003\\\0133\017\003H\003\204\202s\331\311\323\306\301\240}\030\244M\374R\013\023\003\347\r3\210\017\271\201\036"
	.string	"\272\215\027\254\004\225\307\312\0074\003h$\026\006\003"
	.ascii	"\034\225*O"
	.text
	.section	.gnu.lto_.pureconst.ea6356b5c460b166,"",@progbits
	.string	"x\234cb`b\340g\200"
	.string	"v\006)&)f\t\026\006V\tv\t\016I"
	.string	"\007\006"
	.ascii	"\315"
	.text
	.section	.gnu.lto_compute_integer_op.ea6356b5c460b166,"",@progbits
	.ascii	"x\234\235\231il\025U\030\206g\346N)\242R\205\004\b\262\026\264"
	.ascii	"\254Cg\356Zv\n(\225\035Z\366m(K\032\364\027\374\322\037\314\205"
	.ascii	"\252\027\001\271,Q\334\201h\2541\n\256\340\006E%\224(\b\n\001"
	.ascii	"l\b(\262\005\021\032$\354\\\337s\316\234\241\347\\\224\243\223"
	.ascii	"\314w\372\275\357y\2763\223\231\371fnjh\206&o}\260wi\241i\035"
	.ascii	"tM\323\033h\272\221\336\243i\311\206\206n\262?B\354\217\355\r"
	.ascii	"M#\264l\247\246y\215r*s5\357\276\034]'\272\246k\013\215\220\231"
	.ascii	"\243/\234\250\223r\361|m\275\347\255:\266\243v\371\003\317\257"
	.ascii	"[\224\366ne2z\205\216\205\033\351Z\271\256M@\242\267\243\203"
	.ascii	"a\212G\302HoC\225\367`r\235w#\223\tU\350!C\313\273\315\365g\\"
	.ascii	"\303;r\333\252G\325x\225\325\231L?\272\\S\305\345\016\210X\013"
	.ascii	"E\254V\304Z+bu\"\226\257\210]\026\261\002E\354\246\210uS\304"
	.ascii	"Vo\0270[\021{Y\304b\212\330\233\"\326K\021\333,b\305\212\330"
	.ascii	"6\021+Q\304\016\212\330(E\354\250\210\215W\275\334\"6M\021\313"
	.ascii	"\210\330lE\354\245gS\215\322\311\224\227\311,\244\334\023j\\"
	.ascii	"\365\321s\336z\035|\362B&\223G\311\371\252\027A\274/\237R\275"
	.ascii	"\b\"\226\324U\257\202\310\245T9\351\251[\241\312eD\356EUnC\325"
	.ascii	"\"\241\363\275\256\337\261\365\221\331\225\253\253/\235^\242"
	.ascii	"{\277y\274\303\232\206\266\341\316\363\357\264\371\227\260\356"
	.ascii	"0.\375\263\374\nb\311\267\356Z\342\037\216\365\335\177=\326\213"
	.ascii	"Y\307\372\301\177<\326t\365\341\272\324\372\372Er\fm\223\372"
	.ascii	"\321\212\357\224\255\377\027\374\341\256\240\253\037\321\363"
	.ascii	"\021\017\"\372g\177\371\367d\275\347\244\201\241\355S\272#@^"
	.ascii	"\351\037\334H\300"
	.string	"\366\253b\327\004\354\240*vC\300~Q\305n\t\330\021U,=\240>vL\025[%`\307U\2615\002vR\025[+`gT\261W\004\354\017U\3545\001\273\240\212\275!`\177\251b\233\004\354\212*\366\221\200\335P\305>\0210\317P\304>\023\260JUl\213\200\245T\261/\004l\231*\366\225\200\245U\261\255\002\266F\025\333+`kU\261\237\004\3545Ul\277\200\255\273+\266\321\250>\226\311,{'\335\267\242\025\332\340Q\264\301\326\030\177\305\330\006\343q\214m1\276\215\261\235\206\236\332\036\311;\264W\"\351\200\344]$\035I\3620\t\217@y\017J\001I:\221\320\031\312\373P\272\220\244+\t\335\240l\204\322\235$\026\t=\240|\b\245\220$6\t\016\224\217\241\204I\022!!\n\345S(1\222\304IH@\331\f\245\210$=I\350\005\345s(\275I\322\207\204\276P\276\204\322\217$\375I\030"
	.ascii	"\345k(\305$\031H\302 (\333\240\f&\311\243$<\006e;\224!$)!\341"
	.ascii	"q(\337B\031J\222a$\f\207\262\003\312\b\222\214$a\024\224\235"
	.ascii	"PF\223d\f\tc\241\354\202RJ\2222\022\306A\371\036\312x\222L a"
	.ascii	"\"\224\335P&\221d2\tS\240\374\be*I\246\2210\035\312>(3H\342\222"
	.ascii	"0\023\312\317P\312I2\013\311\001$s0\036\3068\027c-Fl9Z%^\306"
	.ascii	"\355\352\277\345\\\375\004\215\247h<C\343Y\032\317\321x\236\306"
	.ascii	":\032/\322x\211\306\3134^\245\361:\2157i\314\320\2304H\\L\343"
	.ascii	"34>G\343\022\032\227\322\270\234\306\0254\2564\310\361\225\323"
	.ascii	"\037\241\245\210\370\221Z\246\243c\344\206vk\337l\331\362BkW"
	.ascii	"_m\344\370\257gr\343\322\373\226x5\215\271u\220[\263|\353\312"
	.ascii	"\236V\334;\341{\rt\337K\345q\353\024\267B\276U\025Xg\270e\362"
	.ascii	"\305\002\353,\267r}\353t`\235\223\251T\023n\235\347VC\276V`\325"
	.ascii	"q\353\036\276V`]\224\2170\325\224[\227\262\016>\260.\313VM`]"
	.ascii	"\225\255\323\201u=k\255f\334\272\231\265V`e\262\326\n,r'\210"
	.ascii	"k\005\326b\331J5\347\3263\262U\025X\317\311VM`-\311Z+\260\226"
	.ascii	"f\255\325\222[\313\263\326\n\254\025Yk\005\326\312\372\026\331"
	.ascii	"\312\364\220\266l\247Fn\330]\207j\357g\363\346\352m\331\315G"
	.ascii	"\360E\177\206\270\332\016\006\255X\302\225\366\354\006&\342\342"
	.ascii	"T0/\237NmO\247\356\272\220\313\345\016\354\266\225\212v\204!"
	.ascii	"\361\017\323\022\035\031\277\267\021\227\037a\367\266\304\027"
	.ascii	"\300\220\370N\264D\001\3437\335\313\345\316\354\001\220\370."
	.ascii	"0$\276+-\321\205\361\351\306\\\356\306\236\022\211\357\016C\342"
	.ascii	"-Z\242\273\177\376\001\337\203=J\022_\b"
	.string	"C\342mZ\242\320?\377<.;\354y\223\3700\f\211\217\320\022a\377\374\233p9\312\036J\211\217\301\220\3708-\021\363\317\277)\227\023\354\311\225\370\"\030\022\337\223\226(\362\317?\340{\261\307[\342{\303\220\370>\264Do\237o\306\345\276\254\007H|?\030\022\337\237\226\350\347\363\315\271<\2005\n\211/\206!\361\003i\211b\237o\311\345A\254\233H\374`\030\022\377(-1\330\347\037\342\362c\254\345H\374\020\030\022_BK\f\361\3716\\~\234\365%\211\037\nC\342\207\321\022C}\276-\227\207\263\346%\361#`H\374HZb\204\317\317\344\362(\326\341$~4\f\211\037CK\214f\374\225\333]e,\353\203R\201R\030R\2012Z\243Tn \343X\263\224\370\3610$~\002-1\336\347\203\0062\221uT\211\237\004C\342'\323\022\223|>h SX\333\225\370\2510$~\032-1Un"
	.string	"\323Yo\226\370\0310$\336\245%f\370|\320"
	.ascii	"f\362O\016\201/\207!\361\263h\211r\306\037\252\r\325\377\330"
	.ascii	"\200\313\364\265o\004\363\347\260O\024\251\312\\\030\364\323"
	.ascii	"\304\377\374(\251\3779\003\233\277AL-\275\207\274A\026\355Z\373"
	.ascii	"jp\256\255^\325^Iz\336\003\025z\316\323\3325/E\376\312}\222~"
	.ascii	"*\221\232\271\376\373G8\223\326\300\304\367K\033~`5\332w'\223"
	.ascii	"\341z\023\333\334\376\374/\323s\3107\327>-y\354\206\301\246\360"
	.ascii	"\255\024?\025+s\311\177 r\027\314\236\277\300*\327L\327\266\n"
	.ascii	"C\363,\333t\035\3131\335\260\0256\335\210\0251\335\250\0255\335"
	.ascii	"\230\0253\335\270\0257\335\204\2250\335\"\253\250\201k\027Zv"
	.ascii	"!\006\333\262m\f\216e;\030\302\226\035\306\020\261\354\b\206"
	.ascii	"\250eG1\304,;\206!n\331q\f\t\313N`(\262lTq\n-\007U\034\333rP"
	.ascii	"\305\301\342\250\342\204-'l\316\263\234\210>\317\254\260\234"
	.ascii	"(\t1\275\342\376\222\322\301c\006\224\226\214\0341\326r\342B"
	.ascii	"\226 S\212\f\3276\\\307p\303\206\0331\334\250\341\306\f7n\270"
	.ascii	"\t\303-\n\341\200\261\333\330\035\354a\354\021\354Q\3541\354"
	.ascii	"q\354\t\354\230\347`\236\203y\016\3469\341\277\0011\247\272\351"
	.text
	.section	.gnu.lto_compute_float_op.ea6356b5c460b166,"",@progbits
	.ascii	"x\234\225\231{p\025\325\035\307\367\354\315\022\206ZE\235\276"
	.ascii	"|\020^\032DYsw\367>\242 \017\215\022A\020H\344\241(KT\3140\326"
	.ascii	"\231\352\330?:\0357!J\024\324\253\322\n\2126u\306\341:}Hk\255"
	.ascii	"Q\247C\324\226\300\264\3308\016\r\016u\022u\3208\250\204\252"
	.ascii	"%F\360\372=\347\354\331\273\371um\216;\263\277\223\337\367\367"
	.ascii	"\375\374\356\271\331\334\337\356\235\230\206i\320c\026\316#?"
	.ascii	"2\214*f\030l\214\301\314\302\353\206\3212\326d\025\362\207\224"
	.ascii	"\374\341\225\261\025fjs\267a\004\343\254\266J#8\311b\214\353"
	.ascii	"\0063\3562S\025\026\273k%\343\355"
	.string	"\262\223\215_\007A\241\377\351\341\003l\307\226\256\255A[W\251\304\252\232\031^z\0343\232\230\261\202536G,\346\330\221{\221l\320S\fNm\355\b\216\227J\251f\2262\215\361e.\220\2539>\021\334\265}I\373\206\256`\250T\252\024/\370=\315\027\334O\27035\271\203\204\233\244\311\035%\\\265&w\214p34\271\023\204s5\271G\236\030\311\325jr\333\b7[\223\373\025\341\3524\271\027\b\267P\223\333E\270e\232\\/\341Vir}\204\363u\257;\341n\321\344J\204\273M\223{t\367#\343\n\367\004-\203\245\322)\002\274S\017\354\332\337\375\362S,x\027-\276\302\247^\240?\327\275\206\344o\264\215\351^D\002n\322\005{\t\370\260.\330G\300m\272 \375\374v\350\202=\305\326\021\023q\007K\036\211\334\336\366P\327\333\367l\237\026tl\tZ\373K%\214\336\n\323\370\3557"
	.string	"IGx-{7\276\206k\371T\213\272\226x\331\337\217\336\345\0336\374\334\377\337\360\301\377\331p\347\267\337\360\256\215\017\234z_\307f\325\3042\215\227\364\177\277#\3578{F\177u\237\275\315&#\366\"\206\357\242o\367/\252\203\362\006\306\230\306>\255\r"
	.ascii	"\035\334}z\371\003\007\260G\027\374\017\001\337\324\005?#\340"
	.ascii	"\277t\301\377\022\360-]p\210\200\377\326\005\207\t\330\247\013"
	.ascii	"\036'\340\273\272\340W\004<\244\013\026\272G\202\003\272\340"
	.ascii	"\303\004\374H\027\334B\300A]\360\227\004\374L\027\334J\300!]"
	.ascii	"\3601\002\036\327\005\267\023005\301'\t\330\246\013\356$`\273"
	.ascii	".\370G\002n\326\005\377D\300\202.\370g\002n\321\005;\t\270U\027"
	.ascii	"|\211\200\333G\005\2375\2730\023\377\361|\333\253U\315gah\366"
	.ascii	"ah\236m`\324N@\362\016\222*\254Oc\235\310\305IHv\210\261\212"
	.ascii	"d\n\222g\220L\345\3119<\234\013\3457P\252y2\215\207\363\240\374"
	.ascii	"\016\312t\236\234\317\303\005P\236\2052\203'6\017\027B\371\003"
	.ascii	"\224\032\236\244yp\240<\007\305\345\211\307C\006\312\363P\262"
	.ascii	"<\311\361\220\207\362\002\224Z\236\\\304\303\305P^\2042\223'"
	.ascii	"\263x\270\004\312\313Pf\363d\016\017s\241\374\005\312<\236\\"
	.ascii	"\312\303ePvA\251\343\311\345<\\\001\345\025(\363yR\317\303\225"
	.ascii	"P^\203\262\200'\013y\270\n\312\337\240,\342\311b\036\256\206"
	.ascii	"\322\re\tO\226\362\260\f\312^(\r<i\344\341\032(\177\207\262\234"
	.ascii	"'+xX\te\037\224U<\271\226\207\353\240\374\023\312j\236\\\317"
	.ascii	"\303\rP\336\200\262\206'>\017k\241\274\t\245\211'7\"\331\217"
	.ascii	"\344f\254oa]\207\365 V\034\226\321\206{\350\304\370\r\321g\357"
	.ascii	"\211xH\304\017D\374P\304\303\"~,\342\021\021\217\212\370\251"
	.ascii	"\210\237\213xL\304/D\374R\304\023\"\226Dl1y\334 \342\335\"n\024"
	.ascii	"\361^\0217\211x\277\210\017\232|\177M\342{i\003\"\276\26762\f"
	.ascii	"\201\312\324>\343\325\027;\017w\245|\366\220i\205\267\3623\214"
	.ascii	"m\001\377\263\305\343\007\"w\354Y\257\352\275a\275=(\3401 \b"
	.ascii	"\217\016V\366\016\035>`*\367{e\367\330\262;\340\317\303\241\273"
	.ascii	"\375\307\312{(\261sW\314[\214\274\037\224\275?L\356\273'\362"
	.ascii	"~\230\350\355\217y\007\"\357\341Q\373\266\337\246\274\037\227"
	.ascii	"\275\023\223\275\305\310{$\321[\210\3577\362\036\035\365\367"
	.ascii	"0\020y?\035\265o\373O\224\367\363DoG|\277\221\367X\242wg|\277"
	.ascii	"\221\367\213D\357\210\375F\336/\023\275=\361\375\336\256\274"
	.ascii	"'\022\275\361\353V\214\274\245D\357`|\277\221\227\177jB\357\264"
	.ascii	"\344\3536\020y7$z\333\343\373\275Sy\357N\364\306\257E1\362nL"
	.ascii	"\364n\215\3577\362\336\233\350\215_\267\201\310\273)\321[\214"
	.ascii	"\357\367\247\312{\177\2427~\215\213\221\367\301Dog\350\345G#"
	.ascii	"K\031\233\273\r>O\366v\016\037`\222\\\307\252\344\020\340\r["
	.ascii	"?I)u\"\n\3425\352\2252I\216\026.nh\217|\223\205u\222\260\356"
	.ascii	"\035\254T\362\0249-H\323\251(\020\376\034\321b\252\344{\306)"
	.ascii	"\371\\9A\b_\215\002\341\247\211\026\325\222\337\371\035%\237"
	.ascii	"'\247\n\341\247\243@\370\363E\213\351\222/\234\254\344\013\344"
	.ascii	"\244!\374\f\024\bo\213\0263\302\367\037\361\027\312\351C\370"
	.ascii	"\032\024\b\237"
	.string	"\026-j\302\367\177\212\222\0359\221\b\357\242@xO\264p\303\367\177\232\2223rJ\021>\213\002\341s\242E6|\377\247+9/'\027\341kQ \374E\242Em\370\376#\376b9\315\b?\023\005\302\317\022-f\206\374\367\225|\211\234p\204\237\215\002\341\347\210\026\263C\376\007J\236+\247\036\341\347\241@\370KE\213y!\177\206\222/\223\223\220\360u(\020\376r\321\242.\344\317T\362\025r:\022~>\n\204\257\027-\346\207\374\004%_)'&\341\027\240@\370\205\242\305\202\220\257R\362Ur\212\022~\021\n\204_,Z,\n\371\265J\276ZNV\302/A\201\360KE\213%\222?0\234W\37229nI\203\006\024H\203F\321\243!\334\300\030%_#G0\341\227\243@\370\025\242\305r:\200V\312\261L\370U(\020\376Z\321bU\310G\003\350:9\252\t\277\032\005\302_/Z\254\016\371h"
	.ascii	"\335 \3077\341\327\240@x_\264XC\007\310Z\365H8\202oB\201\360"
	.ascii	"7\212\026M\222\357T\027@\316jT\245>4\\\243\3747\313'H\322e\035"
	.ascii	"\n\311\217\201\341Cc}\374\361\023~uO\2510\n\257\363{J\353\336"
	.ascii	"\241c\375\321=\345\254\307\215\307Z\202`|3\263~f\f\243+~\252"
	.ascii	"\274U\334\212\370W\256\312\360\226\004\254\030m\341l`#\3578\023"
	.ascii	"\324V\367\030\177}\277\305\215\031'\224\277\25652\213?%\277a"
	.ascii	"\264\364\017M\221\026u4\340;{[%\3777R\345\0357\335~\207\335d"
	.ascii	"X~\332vk*\326\333n\332\362\035\333u,\337\265]\327\362=\333\365"
	.ascii	",?c\273\031\313\317\332n\326\362s\266\233\263\374\274\355\346"
	.ascii	"-\277\326vk\307\370\351\032\333\253\301\222\266\2754\026\307"
	.ascii	"\366\034,\256\355\271X<\333\363\260dl/\203%k{Y,9\333\313a\311"
	.ascii	"\333^\036K\255\355\241\213Scg\320\305I\333\031tq\034;\203.\216"
	.ascii	"kg\\l+\343\261\365\025\315v&\303C\2265\177\267\276\241n\351\334"
	.ascii	"\206\372\305\213\226\331\231\034\027\363\246\2376}\307\364]\323"
	.ascii	"\367L?c\372Y\323\317\231>\364\332\024\266\2103\215\323\301\351"
	.ascii	"\342\364pfpfq\346p\346q\302\347\300\347\300\347\300\347\270_"
	.ascii	"\0032]\226i"
	.text
	.section	.gnu.lto_exec_threads.ea6356b5c460b166,"",@progbits
	.ascii	"x\234eR=hSQ\024\376\316\275\357\347&m\022\203n\n\226\202\203"
	.ascii	"\320v\262\240S\273\273\246\240\233!-\351\033JA\263h\207\3364"
	.ascii	"\201d\020\215%CF\253\224\"\n\202\235\234|-\212\016\255\222I\005"
	.ascii	"\20788\025\212\243T\344yn\356{M\323\036x\357\274\373\235\363"
	.ascii	"\235s\276s\237\200\300i\273\303\317M\t\\bO)\220h}\006\252J\220"
	.ascii	"c?\244\375\330Q\216\220\017?\002:\355\326}\350Q\227|\203\223"
	.ascii	"g\375\216\362\205\367\366\203\211\253\257\212\343\212\310\340"
	.ascii	" \254\n\351\270\236\257h\3656\231\216r\034\033Z\257\3676\237"
	.ascii	"\375\024O\332aG\327\303(\242\313\001"
	.string	"\361tiB\211p\213\002\242\331\276\023jx\\\303\r[\341\337\306#\322O\333z\255\027E\314\224\002\027\006L\355X\352\354Y\252n\205\377\0325\322\353\272\372;\212r\0019\002\027\007\3141Kt\206\211\257E\310m\366\336\325w\257\236'\024\351\005\215\363\250\326{\264D\360\021\220\253\370\345\245\370Hi\216mrl\204\021?\023'fc\237cP\345\343\003\233\213:O5V\244->'h\251\277\250\002\277y\327\005\022\354\344\034I\360\005\310}\254\035\326\266\332\313EzI.\312\344\227\211\363\030=\250\275\241\004T\214\367\301C\231@\3512_\257\201\216\216\241\221\025<\340\021'\361J\263\335\017(e\307\350W\034\330\0274\302\t\313\001Vp\244\233\372\\@\351R\234\305u\314\326F`\233\250\200FM\237Z\263\026=\236IZe\270\246\311r\222\312s\344\200\177\020\371\t\357\177U\335$\215\312\344%m\277\3032"
	.ascii	"\321\221\\A\376\361\r\3155\3130\321l\034u\366\272\363&\340a\343"
	.ascii	"\272\331\316\217o\317\273\")\230\233\304\304\t]\342\204(\367"
	.ascii	"\214\244L)N`\236)\236\005_V.\026\263\335>\026\223\347B\247\304"
	.ascii	"\370\330\234\241a-bH\013\237\262.\313\313{V\20622\366\261{\020"
	.ascii	"\217j'\274\206m\335\344\312,\020]T{\235+\311\220\326\n\274\363"
	.ascii	"\272o\206\364+\013\367*S%\244\226\026*\213\313\363S\3237\274"
	.ascii	"\312\342\335\205\342<\005\377\001\2325\307\223"
	.text
	.section	.gnu.lto_compute_avx.ea6356b5c460b166,"",@progbits
	.string	"x\234cb`b@\007\222@\034\004\304\234@\314\310\314\300\3104\341\034\003C#\007\023##\210\301\300\310P\317\304X\037\311\bV\273\236\351\300\203\377\377\327\3558\265\340$#\023\310(V\206\226\206\206\t\n\f\f\311`\005!@\022\244+\224\221\tD3_d`Ld\\\312\310\n\267,\204\221\021$\001\322\312^\222Z\\\242\227\314"
	.string	""
	.ascii	"(\032\031\b"
	.text
	.section	.gnu.lto_calculate_FLOPS.ea6356b5c460b166,"",@progbits
	.ascii	"x\234\215RMHTQ\024>\347\276\371\3639:3\366G.R\204\201\250\260"
	.ascii	"\026\341.p\33160(Z\304\364t\206\033cJ\363V\266\360\216Oa\212"
	.ascii	"\250I\f\247d\310 \031E\304((pa\217va%\266\323Z\f\201\020\bA\213"
	.ascii	"@\334L\347\3367Wm4\362\301\2343\367\234\357|\347\273\347\\\006"
	.ascii	"\fj\277\343\364{\341\003\350 \217\006 \313\177\006\310\206\030"
	.ascii	"\242\374\003\b\203\f\007\257\242\204\372\333\340\271\020\243"
	.ascii	"\345\251\305\025|4\346\026\304\260[\251`\013G\2425\021,\204+"
	.ascii	"\310\021;\225c\241\277\373\310Z7\357N,=n\022\223cb\250\\\251"
	.ascii	"P\245\301 \272S)<\317\242\373\225\212\337\027s#\256\330\254T"
	.ascii	"\202\252\356\350\201\352\304\250[\\z\020\023\223\367uK\037\203"
	.ascii	"\346\203\210\025y\367\331\322\303\223\273\304\372\031\304\377"
	.ascii	"\333t\236\271\204\376\270:\374\345\354\021\003{\021\002\3001"
	.ascii	"\020\224&$M\2354\2464\365\322\204\245i\220\246\021\0228\213m"
	.ascii	"\020\241\203?J\2079:\304\310O\221\227\323\207a\322\324\232\300"
	.ascii	"\022\235\0238\243\354\254\262s\na\251%u\221\225\233\273\214L"
	.ascii	"zc\031F\312\253#f\002\347\321O\351;\260%r\"\3121h\241\302\253"
	.ascii	"K\204db\200c\235fW`\216&\200\254_[\017\356\251\257\267\320{L"
	.ascii	"^D\\\342\030\266\320\250\342Rhpl\360\252\277\356S\375\257\356"
	.ascii	"35\335?\301\320\332\346\333_U\332\024\006N\303)\216\215\036\360"
	.ascii	"\006\352\241K\330\313c\032\024\324\240R\r\310\271\353,0\215\n"
	.ascii	"\021\033aU\374\236\363\035u\274\216RRU@\214m|3\252\344\371\026"
	.ascii	"\2356\025yD+\300]\n\362)\r\252\327\240R\r\210\024\274\tkT\230"
	.ascii	"\330\b\253\3429ga\373\222\rJDX\221\376t\006t\2701%'J\261i\347"
	.ascii	"\335\3705\035\215PB1\024\235\233:\026m\206'4\347|\2016$\344\347"
	.ascii	"\216\377xEWRxE\361azq\373\302\261\tx\232\025r+;\373\211\366*"
	.ascii	"\321r\016\372}/\303\3365\306,\364\251$\261\310`A\210\013\034"
	.ascii	"\233N\300\231\242(tr<\004;\357\201dq<,\273\277\337\250.\301\233"
	.ascii	"\317yx-r\324\310\233\365\256\344LMr\005\262\345\255\270\026\341"
	.ascii	"}]\244\223\236\271|\212A\273'c\267[\340O\366\267w\234\363g\354"
	.ascii	"\304m\333\350\271\325m\332}v\"}\335\346\275=\201T2\335\327\237"
	.ascii	"1\343\335\255\255\361t:i\302\0370A!\351"
	.text
	.section	.gnu.lto_calculate_IOPS.ea6356b5c460b166,"",@progbits
	.ascii	"x\234\215SMHTQ\024>\347\276\231y\343s\324\231\251\214\\\230\b"
	.ascii	"R\030\b\201\264\213\\\266h\023\030\324*\306\347\017\0274E\337"
	.ascii	"\312\026^}JcDNb4\375H\266\b\023\021\303\026\225\021<\332\265"
	.ascii	"\250\301m\004\rm\022\205\250E\020I\274\316\275\357]\307F#/\314"
	.ascii	"9\363\276\363}\347\234w\316}\f\030\224\237#\364{\035\001h%\217"
	.ascii	"\006 \313\275\007\030\2153D\371\007\020F\030\216\\BI\2156\302"
	.ascii	"#!\246\213\023\376\032\336\232\361\362b\334\363}<\312\221\322"
	.ascii	"Z\b6\302E\344\210m\312\261\370\337u\244\326\313y\317\013\267"
	.ascii	"\323bnF\214\025}\237\224\006\203dI)\002\317\222{I\305\217\263"
	.ascii	"\331\tO\374\364}S\351j\367\245\023\323\336\313\251\233)1wC\227"
	.ascii	"\2140\250\333O\263\"\347\275*L\035\337\321l\224A\323\177\213"
	.ascii	".3\217\330\017\266\3067\316\324\032\330\207\020\003\2161S\232"
	.ascii	"\2704\025\322X\322TJ\223\220\246J\232j\310\340\"6B\r=\230IiR"
	.ascii	"\204,\021\222&\377\230\274\\\001\214Sc\r\031\234\247\347\f.("
	.ascii	"\273\250\354\222b\330jS\355d\345\372. \223\336(\300D\361\323"
	.ascii	"5+\203\313\030\245\360U\370%\262\"\3111n\243\342\2537\251\220"
	.ascii	"\201a\216\226\316\256\310\034+\001\244~\375\213\271K\237\260"
	.ascii	"1\270Q\001\"\316s\254\262\321\by=hp\254\016\324\033{\250\377"
	.ascii	"U}\241\254\372;\030\373\360b\353{\230\266\007c'\240\231cM@\354"
	.ascii	"@=yI{zX\223LM\232/#\271\223\356*\323\2548e#\256\302\257\273\237"
	.ascii	"Q\343\025\024\222]\305\304\314\346G#L\376\255^\207-\225<\251"
	.ascii	";\300R\362\254\273\272\335g\245\312c\205\342n\r'\264x\276\\<"
	.ascii	"\351\256$4\253J\351\023J\374\325\035\326p5E\024\366\304\335|"
	.ascii	"xN\2435=r\316\224av\273x\262\016\356\322\230syZ\220\220\307\273"
	.ascii	"\263\276BodJz\230\265C\223S\304W\330\333<}\333\032M\337\207{"
	.ascii	"\243Bn\252\264\263T\237jX\316&\0256^\200\335\253M\333\030QA\312"
	.ascii	"\"\301\274\020\2479\036\250\207\346Y\221o\343x\020Jw\204\312"
	.ascii	"s<$\313\277\331\f\027\023\314\246\025\236\211,\025\n\346\277"
	.ascii	"#\270P\026\\\203\321\342\357c\272\211\340\264S\237t\365\345\365"
	.ascii	"4\235\256!\247\305\206h\367@\313\251\223\321!'3\350\030]W:-\247"
	.ascii	"\337\311\364^vx_W\204\367\017\fYM\235\r\rM\275\275\335\026\374"
	.ascii	"\001\357+({"
	.text
	.section	.gnu.lto_main.ea6356b5c460b166,"",@progbits
	.ascii	"x\234\225\224_HSq\024\307\317\371\335\177s\3236\235sB\260\302"
	.ascii	"\327hB\205\bA\350\203\201$\031\271\240\350iM\263\013\032\221"
	.ascii	"\363\251\007\2576#\320@\305\300\212\310 +\211\212\n\0234h\376"
	.ascii	"\311\245\263\264\321[=\214\020\"\204\030\364\020\364\262\316"
	.ascii	"\357wwg\315\177xa\277s\356\371\235s~\237\357\271\367\216\001"
	.ascii	"\203\334\353,\375\372\025\200cd\321\006\310\372>\002t\332\030"
	.ascii	"\223R\0360\354\312p%\030\371\022\223\277\330\351N\033\233\001"
	.ascii	"\272\225Q3\263\024\246\3169y|\341\b\205U+\254!r\007\020:\230"
	.ascii	"$+\252\206\035g\220\037&\225\301}\303\350K\216<\234\226\372\007"
	.ascii	"\247\206\214H4\235\306=:\022\230\035!\204p\032u\304*a\230\215"
	.ascii	"*Zq\rU\024\017D\337\016\334,\\\030\3565\272\222\3514\225J\fJ"
	.ascii	"7)\305\334\322\337\211\301\234R\337\266\245\317Y\224\262{\373"
	.ascii	"\273\277\325\355f\330\212L\006\035e\205/*_4Z\300\006A\034\301"
	.ascii	"2p\220}D\326Iv\224l\021\337t\323\242\024s\317\303\275\022\356"
	.ascii	"y\271G\335\025\210\320@\366\002\247\240+@+\037\335)d\334J\037"
	.ascii	"\240k\242{\374\301\376 >\241\364f\224\357\300m\202\224\233\221"
	.ascii	"qX\265\324d\\\202k\251\305T\302\233\355f:\321\370\334\212\004"
	.ascii	"`\026\207LM\315Xt\005\376\030\327\r\227\216Z\bY\020\237\t\020"
	.ascii	"\336\\\264\0041\006\305N\2004\n\002X\235y5\035W\203\370T\020"
	.ascii	"\270\251\201\bO\274\353\211\315*\026\230\222\003f\333\032\254"
	.ascii	"'\366y=Xq\016\330K\013L\331\032\354\205 \360P\203\fX"
	.string	"<\266\"Y`j\016\230k\233\211\305\302\353\270Jr\270^[\\\352\326\\c\002\300K\rD\370\347L|1\242Y\\\032\215\222\207\257\336\310\242\332x\0370\006W\277J<A\024\315/g*HF\247\301\031 K\223g~\034\274*\017L\"\002x\017\263\337\247\306\023\314\352\352\021t\377|F\364rI\220\362H\"q2\221=\336+\022\331\177\2112\030\222\264\004\335\311{\363v+\317\221\005\260\207\250\023\277x\244TG\207\017\016\3375\206\252t\314\317\314\320\332)\360A\265\271\263\313\332\321\321i*L\2519\n\245\354\001.\363C\344`\256\214B\007\177v\221\344\343yG\246\317\332<\nC\304kf\271u\376\226\232\032\024\030\2564\305\376Z\233\312FbU\270\345\020b'G\263b\235\233\212u\373\240\306\224T\274\003\261\313;\022\3534\305\276\371\261\241Xe\003\261\232\370\333\370\004\235\311\270n\326\b\241\226\310"
	.ascii	"\035A\t\\\267\026nj\013\373CPP\033\2509Y\035\250\255?\336\340"
	.ascii	"\2578\240\234\277\344\2578(\326C%\345\355m\227\313\365\213\241"
	.ascii	"\226\366\306\246\362\266pc\213~\316\177\001\224\332\372\023\r"
	.ascii	" \005\367\201z\264\216\273\177\001O=r\303"
	.text
	.section	.gnu.lto_.symbol_nodes.ea6356b5c460b166,"",@progbits
	.ascii	"x\234M\314MN\002A\020\206\341\257\252l\252`\006\256\340\222\205"
	.ascii	"\327\361>5N\253\003\2548\201\013=\n\306\030M\344\n\032\266&n"
	.ascii	"\375\033\376f\006\232\336\274y\372\3534\203qIh\017\377\252\023"
	.ascii	"\346o\200\373\335\224\302\267\"8\370O\035\351\226\377\325\371"
	.ascii	"\300\tq\255.'\\\253\237%\206\037\245\375\027\033\365p\362\250"
	.ascii	"0\357\035\370\314T\232k\313\242 \2722\267\244\033\363~\322\265"
	.ascii	"\371 \351\326<K\252\314\363\243D\006\210\365\327\205H\037\361"
	.ascii	"\351\261\026\t9\342\373\232$\b\356\233\346X4\315\260\252>\317"
	.ascii	"E\273]\273]\273]3\304\331n\267\021\036\366\3365~\264]5\035bQ"
	.ascii	"\215\305\024\345l\334\350e\311b\001\345\353\222\261\005\372z"
	.ascii	"g\211"
	.text
	.section	.gnu.lto_.refs.ea6356b5c460b166,"",@progbits
	.string	"x\234%\302\201\t"
	.string	" "
	.string	"\303\260\256\342\364\t\377\177S\301\020\221\303\2277\022\247R\227\320\261\2234\345\002\b2"
	.ascii	"e"
	.text
	.section	.gnu.lto_.decls.ea6356b5c460b166,"",@progbits
	.string	"x\234\255Zkp\024E\036\357\236\335\354nH\bA\205KYZ\304+\275:\275\222p\034z\224\037$\326\235\236^Yj\251wu\347\227\271a3\t{nv\343\356,\242\367\201\016\t\030^!\004$Q\020s\"\n\276\b'\312\353\200\341\375\320\002\r\234\021\017u9\024\225\363\316\250\b*H\356\337==;\323\2633\373\3101U\3353\275\323\375\353\337\377\321\377~\314JHBm>\204\006\341\362]\217\320\275~\204B\b\241\233!\r\207\264\022\322s\2206@\332\b\t^\243\315\220\266B\332\006i;\244\035\220vA\332\ri/2.\332v?\244\203\220\372 \035\203\224\206t\022\322)H_C:\007\251\f#\364(\244%\220\226B\222h\177p_\205\221pQ\034\312\253\004R\005\244rHAH/@\275"
	.ascii	"\334_\206{/o\203y}\314\261\354\327~\2163\316\2063\036\322Z\216"
	.ascii	"\263\316\201\263\337\003\207\312T\311ua\342\254\307\206~(\316"
	.ascii	"$H>lp<Cu\207\r=\236\207\264\t\033z=\315\261|\034\357\034\327"
	.ascii	"\013\325\301QH\375b\227L\207\346\205\035e\363JC\032\005I\303"
	.ascii	"\026\257\231\360\274\031\033rRn[9\317V\270\377\005\3226l\310"
	.ascii	"q\030\322lxn\207\244C\332\216-\273\227s\333\264\301}>6\354@\373"
	.ascii	"\242\266\353\343z*\343u>B\331\366\243v\037\235\207\327\270\213"
	.ascii	"\310\355\244\215\333A\033\267O]\270\235\342:\013\330lIy\356C"
	.ascii	"\006\027\352\323;\240\274\214\373\306Nl\371\273\351\377]\234"
	.ascii	"\327.H\307\2215>\020\307\245}\354\346>N}\375$\327\037\265\275"
	.ascii	"\351\357\003\016[\226\2419\204\314 =\255\244\r7\257\275B\301"
	.ascii	"\223\312\320\037\260\202+JQ-{(/e\276\214\220\202W\342\262\254"
	.ascii	"f\255\254\331\245\250\223\300\325C\bn;\001\275p\004\335gBL\204"
	.ascii	"6\327\240g\t\351H\257<1\340#$\304\233T{\327W\360*|\r\312_OBW"
	.ascii	"c\250\374\002\276\024]\207VC\335\016B\376u\271 %\353\232\350"
	.ascii	"\203WJF=\n\376\022\276\016\271\\W\241\036Zu\321\254y\230\244"
	.ascii	"\2114\022u\260\356\273\241\3336\372\244\257 UU\031&!\223\b\316"
	.ascii	"\364\002\365\241\227^\\\n\304n\302n]\320\336\351{z\321\346\364"
	.ascii	"\231\f\362\013O7\177\232\356!/m\276\006\217dO\234\224e>\250\343"
	.ascii	"e\276Wm]\226\227Z\017\277\344\244$4\311\324\243k\277\231v&H\205"
	.ascii	"Y0\225\366\370\254\366\221\244g^\265\202\003T\372\333\034p\002"
	.ascii	"\243\034h65Q#)\370e\360\003\005\277\202\257\202\3745\310m\025"
	.ascii	"^\304\222`K\323\276\266*\364\007\263\212+\212\273\302\262F\306"
	.ascii	"\363\036\222P\324\365\326\320\340\227\243\271\345G\206q9\320"
	.ascii	"=&\3200\016\264q\b\206\335\344aX\207v\263\332mp\031\317Fw\243"
	.ascii	"\321\343\314\327[`@?d\217\t\202\277S\214\277\343\321\354\311"
	.ascii	"\307\"\037bu\025\374G_\036\345*x\263g\347\036\252\032g\"\004"
	.ascii	"8\302\266!\250J\367PUI\036\266[\213e[e\"\3708\302\216!\260\335"
	.ascii	"\351\301V\312\303v{\261l\177*\352A\301\273\207\300v\217\007["
	.ascii	"\177\036\266\273<\331f\rA\033\345,\230}\270\314\036\t\274\252"
	.ascii	"\355\265z\033\203\226\223\364@z\313\236\177\214l'z3\204\340\351"
	.ascii	"\334\243%\364{,\204\225\253\321\n\312\344\353_\267\371\230\213"
	.ascii	"K\250\201V\330\217\307\270v\304\352\300\365\023\264\2226[\321"
	.ascii	":\263\262\212\377\346\335\210\023<\200M\363\332H\352\037L\354"
	.ascii	"&\003\203\203#L~\215\256\374\316\232\374\024\374&\013\214\007"
	.ascii	"\207B\320\253\021'x\310\225\340\331\307\222d\0269\017+|\344\210"
	.ascii	"\0367\217\362\214\036\207]\242G\346\331_j\334m\301DB\004\273"
	.ascii	"\b\336I\276\261\f3\237\325\350\313)8k\325A\236\272\345v\326\215"
	.ascii	"\204\026;\033U\333\275\327\344\302\264E\310|2\263\0223\271\020"
	.ascii	"od\273\024\374N\266~z\323\372\372\003M\246~L\033>\355&\313\f"
	.ascii	"r\324i\304cC1\242W#N\362}W#v\315\035\202\021\217;\215\b\312r"
	.ascii	"X\355E7I;\310\331\332\333y\355\367\230\240\351\241\350?\355\324"
	.ascii	"\377\tW\321z\027\004{Izpp\214AX\202]\201+\247o\034\234N\016\205"
	.ascii	"\323I'\247O\262"
	.string	"9\365\244\365\301C\t\017u\373K=\325\375o\027ug\236yt\023\324\257\340\007\244lI\t\331Vkz\377\001\246\212S9%\345\003\315\2100\264\033\t\035r6sx''\30354\027\334\323\317\265\346\335\231\305\330i\302\216\364\321\203\347w\342\343\315=F$,Be\247E\225\261I\315\232V\334\347\n\276[\231\371\341\225\004X\237a\313\371\317\035.\243\340\240\260hee\263\002\305\n\226Z\017\203\231\025\276\315v+]\354%\2413\216~L\364\357]<\2737}\264\375\363b\325\302\372\227P\213\204M*\364\225?\363*S\366\211\004\316\213\212t\354\002\r5\025\270\232\366\256\252\340\026\311\271\232\316(\3549Ca\231\362f\241\234E\310\n[Y\235L*s\350\330a\204\005\222\335\b\\c\313%aG\247\3406\311\315S\327-:Y\322Nv\320%\305`\025!\033q\021F\321\263\214\"\331\b\354\263\336\302"
	.string	"\314Q\325\335\204\214\363<)\227\025/A\013\2637\334\303M\232\357f6\272\035\372\333\037c\330\352uK\227"
	.string	"\316;\222\350\262\005\240H\350\237\254\321R"
	.string	"0\232\032\033\350\364\023]g[p3h\312x\227\177\263\376\341\241\026L:+\271\006\276\317\240\272\005\230|\273\330\031\372w\207\346\361]\354>\026\346\232}\016\274\274\373\330Z\001\357\373C\241\216Y\225&Z{\321h\004\013p\347\005\270\245E\303\351\"\334\005\001nu!p\325\336\272\353\350\263\243m(\032M\324\\\247\200\266\247h4\207\346\026\013pG\212\206shn\211"
	.string	"w\274\020\270Zo\315=)\240\375\247h4Qs\313\004\264sE\24394\267\\\200\233\353/\026\316\241\271W;\273\330\bsL\n\2561\003\233\200U\210\206\214n\326\367\006G\310\320\027\315-\247\323\364\206\002\302\305\f\375\361\271]|\200\257\227\250<+2\230\205\216!\021\257k\356\0227q\274U\304N\024\2549\016\206]\321\f\354\346&\372\323o\330\003\340\032'Z\336"
	.ascii	"H\234\347\224^\254\327\333Y\257+\304\017\376\344\255\267\365"
	.ascii	"\235K\270\035\2662;l)\032O\324\302\346>\273\026v9\321\334\264"
	.ascii	" \240\tNO\364\276\316PG\2639\255\276Y4Z\217\210\326\337g\234"
	.ascii	"\215:NTr.>\217\236L_\273\221\020\220\350\200DI|\341w\256?\003"
	.ascii	"\216\365g@\\\177B\221\230\227q\260\034\260\026\242\323\251\r"
	.ascii	"\317\026\255sq,\247\237\350\357\177\026\177\325LV\325*\330GI"
	.ascii	"\266\2248\020+M\030\311B\344\252vq\013\242\177\331\267\240\202"
	.ascii	"\036\275+\030\3216\013\234x\302\362\336\025\257R\300\373\272"
	.ascii	"s^\205\355(_\3679\016\277\262O%\244\342\017\277\216H\356\207"
	.ascii	"_\326hY^\274\034U\302p9\327\267\300-\314\214B\2133&~\310\354"
	.ascii	"\216\257\320\316\316\031A\303\342\273\322( \260\252\304\351="
	.ascii	"l\267j\363\036(\013\261\323K\330~{\024x\325)\227\233\007\211"
	.ascii	"r\325\n\366y\352\360\202!\214\214O\257\335\314F\306\373ldl\314"
	.ascii	"\222\355\377\036\031;\213\227\2138\207\306\027\213\361\302\031"
	.ascii	"\244\255%\304\317\246\336(\036\323"
	.string	"1u\276u\330\230\211\031\\_!p=\236Cm\206\336gG;Z<Z\255\200v\304\216\226.\036\315\261\350\350_4\337\362\213\002\267\353O\177\221\276i\r\363\213S\314/z\002\027i\307.\241\347\003E\013$\330\016\3665\375g\264\016\242\267\372\371\234\362\212\023\321mN\321sD\312\017\0279?R\n\201\255'\263v\272\214\013\373\345\020\"\333W\036\221\315\374\312\006\353"
	.ascii	"\247\034b\307\256\202T#\317\313\276#T\360S\022\375\366\267\\"
	.ascii	"\242_\355zX\376\f\313\237e\371s,_\305\362\027X\376\022\313_a"
	.ascii	"y/\313\377\306\362u,\177\235\345;Y\276\233\345{Y\276\237\345"
	.ascii	"\007Y\376\026\313\373X\376\016\313\217\261\3748\313O\260\374"
	.ascii	"c\226\177\302\362\317X\376_\226\017H\305\177W\354\316\261J<\355"
	.ascii	"u\022\342\330\264g>N\353U\335\025\231\236\205\031F\301k\331g"
	.ascii	"\324\242\276<\347\343~V\362v\234o\263\270\333.X\3559\206\246"
	.ascii	"\313\305\017\270\226\236\031x`\3312\322\332B.\fN/\350(\305 p"
	.ascii	"N\312>\366\203\253\225\334\276\257\002\271\2169s\332\3343\232"
	.ascii	"N\233?\260\020\362\236\203g\3010t\371\366\263-,\030\021\2662"
	.ascii	"\372(+\030\371\035\301\310/\006#\2771I}kY\307oD\245 \032r;\247"
	.ascii	"\377\b[/\335o\337{\221\3140\256d\026\033`\374g\372\034\3075K"
	.ascii	"\317\350c\272\231\230\364U\376\323\232o\036\033\312|\237\276"
	.ascii	"n\023\353c6S\345wY\252\374\277\347\373\031AS\272\034\361\335"
	.ascii	"\270\334\2021\250\341\3351k\236!d-\301\305I\246\327\354g\222"
	.ascii	"\2653\311f\007/\272dK\213\226\254\326a9\257!\336\352\263\017"
	.ascii	"q\307\001\352\nA\022~~\2716\210\315\202\202\347\210\207\247\f"
	.ascii	"\242\323\347v\240\372\332\242#\037y\237q\323(\351\025\004\272"
	.ascii	"|\216\317%g\2442\261\220\315|S\320-4)\370I\027n\275\351\205\027"
	.ascii	"\276\035\273\332+<\005<Oz\025|\001KY\307\357Vg\313r\020\317:"
	.ascii	"\347\246\0073^F\332+\3747%\367\347\325\376l\233)x1\023;\207\315"
	.ascii	"V\210z\3711\372+\351y+\275eO{`!\321\273u\242C\030\032\303\377"
	.ascii	"\024\364A\246\007/\276\317[h\f\251O\337r\f\026\226\204\177\377"
	.ascii	">\315\316\n>\313\013\263\232\303\320\237\3714\312\306eK!\343"
	.ascii	"\222\377\213+\310\276\372\004=\377\305U\340\342\221\367\233w"
	.ascii	"\312\340\275\226\320^/x\367Z\"\366ZRj=\320\016G\270\314\323\001"
	.ascii	"\357i\272\327\032\303\303\320lB\232\t\231CV\341\346\267\257\360"
	.ascii	"\230\b\354T\307\017\243\347\201!O\252\343\207Y%\216\236\236]"
	.ascii	"\250\366\307Q\360.o\360q6ps\t\f\363\227\360m\211\370M\364Z\336"
	.ascii	"j\275\257\3705\360\006\237\373\032\330\234\207\263\364M?\224"
	.ascii	"y\201m\364y\375\337\305\370R\351\325n\223\325\256\230-\321\017"
	.ascii	"\317|\367:na_S6\263\031\346\265\320E\332\023e\261\247\013./\366"
	.ascii	"[sH}8\207\324\333riK\362\216zz\216v\363r\360\334\236\243\035"
	.ascii	"\r\311^\355v\344h\327\225\243\335\316\034\355\216\347\320\313"
	.ascii	".\237\370?&:\017\r\37463E\366\264\005\n\376\346\230o&\332\343"
	.ascii	"\234\211\350\312\3361ql\r\271L\366;C\266\311~\261\031\326]&\022"
	.ascii	"\376\347\002X=\215\304\006\274\204\336d\210\273}^\377.\340\333"
	.string	"\013\376\357\202\236U\2444\363\347\002[#!\310ry\016\210\323\025\272\252&\225L\324Db\341h\252N\255\231\034\321\2225M\332\224\204\252\324i\2174\251\311\261SP\005/\313\212\246%d-\360\233\273~W\375+\344\017OQ\022\001YNF\036U\203\262\254D#\r\261\240\246&\265\261aT\031\21676\2454U\256\217\306\025M\2167\2254)\t\245\361\022\363\347HLS\033\324\004\274(W\247\251a\331\300O\006\032UmJ\274nX,n\376Rf\266P\246N\033\021V\242\341TT\201\322mw\336}\317}\025V\371\016(\372\225DC\230fS\177$H\304\311\203\034\245\246\034Z\271\371\364\347x$V&\313\261x,\226\212Fe9#j\030rMe\257\340\227\370\303\262<J@Mju\2218`\006y\323@}<\321\250h\201\246\004\310V\357\277\355\216;o\r\001-\231>\210-\243\221\311\254e"
	.ascii	"\224\2434$\313i-\326e\223\226\260\nj\254nx\2460YI\252\025\264"
	.ascii	"\364p\"\002\322\322\342p\253\b\355l%h\310P&\247\352Y\3052\263"
	.ascii	"`\"&\225\251\006\304\b\366F\t?\230jb\345\362\314[\250:\214\026"
	.ascii	"\032\225\304\203j\242D\216\251\323\264\0229\t(~\271)\236\f\361"
	.ascii	"\027\311\200\f>\020\211\005\345\372HT\215\305\203\206D\343/\317"
	.ascii	"\366(\323\225\300Q\342\365\365\262V&\307\243u\3641\251\302s8"
	.ascii	"\225\220\303\361h\2521V!O\325\224\311Q\225\277*\225\223S\342"
	.ascii	"\t\r:f|\242\361\360\20320\241\367R\206t\343\004Y\013\362\312"
	.ascii	"\340\213MJ\335\317\215\333x\343\366\013\3436a\"\243\004\252\257"
	.ascii	"i\b\207k\246M\274Q\276q\302\365\t\265n\212\242]\037\215\304R"
	.ascii	"\323j&\214\2358\366\006\273y\353\324zj%\352\3362\307\276\241"
	.ascii	"Dn\214\327\251!9\025K%\325\272\361\301z\303\334\227\t\002k\221"
	.ascii	"F\225z[\230\322\214\324Qa\345\314s\210\276M6\251\341\220,\323"
	.ascii	"G\200\326\246\312I5<\022F\322#Ip\351\250\234\214\306c\r \027"
	.ascii	"\274\210\301\233\341\254\261\334\240j\264\001\264\213\252J\275"
	.ascii	",\227\324\307\233\324\330h\247W\202\214\214\266\226\320\342\321"
	.ascii	"aw\334\177\353\275\267\334\177\307\335w\335'\3257\215\244\270"
	.ascii	"\325\251X\022F\252ZW\r\314\313\355\2052\366\272.\236\002\375"
	.ascii	"\007\214[\026:T\003\364P\n\356T\365~E\213G\200QS*\241\3122()"
	.ascii	"\006\316\370?\247-\026\355"
	.text
	.section	.gnu.lto_.symtab.ea6356b5c460b166,"",@progbits
	.string	"compute_integer_op"
	.string	""
	.string	""
	.string	""
	.string	""
	.string	""
	.string	""
	.string	""
	.string	""
	.string	""
	.string	""
	.string	""
	.string	"\316"
	.string	""
	.string	""
	.string	"ITERATIONS"
	.string	""
	.string	"\004"
	.string	"\b"
	.string	""
	.string	""
	.string	""
	.string	""
	.string	""
	.string	""
	.string	"\246\001"
	.string	""
	.string	"compute_float_op"
	.string	""
	.string	""
	.string	""
	.string	""
	.string	""
	.string	""
	.string	""
	.string	""
	.string	""
	.string	""
	.string	""
	.string	"\311"
	.string	""
	.string	""
	.string	"exec_threads"
	.string	""
	.string	""
	.string	""
	.string	""
	.string	""
	.string	""
	.string	""
	.string	""
	.string	""
	.string	""
	.string	""
	.string	"\322"
	.string	""
	.string	""
	.string	"compute_avx"
	.string	""
	.string	""
	.string	""
	.string	""
	.string	""
	.string	""
	.string	""
	.string	""
	.string	""
	.string	""
	.string	""
	.string	"\334"
	.string	""
	.string	""
	.string	"calculate_FLOPS"
	.string	""
	.string	""
	.string	""
	.string	""
	.string	""
	.string	""
	.string	""
	.string	""
	.string	""
	.string	""
	.string	""
	.string	"\340"
	.string	""
	.string	""
	.string	"fp"
	.string	""
	.string	""
	.string	""
	.string	""
	.string	""
	.string	""
	.string	""
	.string	""
	.string	""
	.string	""
	.string	""
	.string	"\250\001"
	.string	""
	.string	"calculate_IOPS"
	.string	""
	.string	""
	.string	""
	.string	""
	.string	""
	.string	""
	.string	""
	.string	""
	.string	""
	.string	""
	.string	""
	.string	"\346"
	.string	""
	.string	""
	.string	"main"
	.string	""
	.string	""
	.string	""
	.string	""
	.string	""
	.string	""
	.string	""
	.string	""
	.string	""
	.string	""
	.string	""
	.string	"\352"
	.string	""
	.string	""
	.string	"pthread_join"
	.string	""
	.string	"\002"
	.string	""
	.string	""
	.string	""
	.string	""
	.string	""
	.string	""
	.string	""
	.string	""
	.string	"\363"
	.string	""
	.string	""
	.string	"pthread_create"
	.string	""
	.string	"\002"
	.string	""
	.string	""
	.string	""
	.string	""
	.string	""
	.string	""
	.string	""
	.string	""
	.string	"\373"
	.string	""
	.string	""
	.string	"clock_gettime"
	.string	""
	.string	"\002"
	.string	""
	.string	""
	.string	""
	.string	""
	.string	""
	.string	""
	.string	""
	.string	""
	.string	"z\001"
	.string	""
	.string	"fopen"
	.string	""
	.string	"\002"
	.string	""
	.string	""
	.string	""
	.string	""
	.string	""
	.string	""
	.string	""
	.string	""
	.string	"\226\001"
	.string	""
	.string	"strtol"
	.string	""
	.string	"\002"
	.string	""
	.string	""
	.string	""
	.string	""
	.string	""
	.string	""
	.string	""
	.string	""
	.string	"\233\001"
	.string	""
	.text
	.section	.gnu.lto_.opts,"",@progbits
	.string	"'-mavx2' '-mtune=generic' '-march=x86-64' '-O2' '-flto'"
	.text
	.p2align 4,,15
	.globl	compute_integer_op
	.type	compute_integer_op, @function
compute_integer_op:
.LFB1016:
	.cfi_startproc
	pushq	%r15
	.cfi_def_cfa_offset 16
	.cfi_offset 15, -16
	pushq	%r14
	.cfi_def_cfa_offset 24
	.cfi_offset 14, -24
	pushq	%r13
	.cfi_def_cfa_offset 32
	.cfi_offset 13, -32
	pushq	%r12
	.cfi_def_cfa_offset 40
	.cfi_offset 12, -40
	pushq	%rbp
	.cfi_def_cfa_offset 48
	.cfi_offset 6, -48
	pushq	%rbx
	.cfi_def_cfa_offset 56
	.cfi_offset 3, -56
	subq	$36, %rsp
	.cfi_def_cfa_offset 92
	movq	ITERATIONS(%rip), %rax
	movq	$0, 20(%rsp)
	movq	$100, 28(%rsp)
	movl	$1, -72(%rsp)
	movl	$3, -68(%rsp)
	movq	%rax, %rbx
	movl	$4, -64(%rsp)
	movl	$7, -60(%rsp)
	movl	$4, -56(%rsp)
	movl	$8, -52(%rsp)
	movl	$9, -48(%rsp)
	movl	$3, -44(%rsp)
	movl	$3, -40(%rsp)
	movl	$3, -36(%rsp)
	movl	$3, -32(%rsp)
	movl	$3, -28(%rsp)
	movl	$3, -24(%rsp)
	movl	$3, -20(%rsp)
	movl	$3, -16(%rsp)
	movl	$3, -12(%rsp)
	movl	$3, -8(%rsp)
	movl	$3, -4(%rsp)
	movl	$3, (%rsp)
	movl	$3, 4(%rsp)
	movl	$3, 8(%rsp)
	movl	$3, 12(%rsp)
	movl	$3, 16(%rsp)
	movq	%rax, -84(%rsp)
	movq	20(%rsp), %rax
	cmpq	%rax, %rbx
	jbe	.L3
	.p2align 4,,10
	.p2align 3
.L5:
	movl	-72(%rsp), %r15d
	movq	28(%rsp), %r13
	movl	-68(%rsp), %r14d
	movl	-64(%rsp), %r12d
	movl	-60(%rsp), %ebp
	movl	-56(%rsp), %ebx
	movl	-52(%rsp), %r11d
	movl	-48(%rsp), %r10d
	movl	-44(%rsp), %r9d
	movl	-40(%rsp), %eax
	addq	%r15, %r14
	movl	-36(%rsp), %edx
	movl	-32(%rsp), %ecx
	addq	%r13, %r14
	movl	-28(%rsp), %esi
	movl	-24(%rsp), %edi
	addq	%r12, %r14
	movl	%eax, -120(%rsp)
	movl	-20(%rsp), %r8d
	addq	%rbp, %r14
	movl	%edx, -116(%rsp)
	movl	%ecx, -112(%rsp)
	addq	%rbx, %r14
	movl	%esi, -108(%rsp)
	movl	%edi, -104(%rsp)
	addq	%r11, %r14
	movl	%r8d, -100(%rsp)
	movl	-16(%rsp), %eax
	addq	%r10, %r14
	movl	-108(%rsp), %r10d
	movl	-12(%rsp), %edx
	addq	%r9, %r14
	movl	-120(%rsp), %r9d
	movl	-8(%rsp), %ecx
	movl	%eax, -96(%rsp)
	movl	-4(%rsp), %r8d
	movl	%edx, -92(%rsp)
	movl	(%rsp), %edi
	movl	%ecx, -88(%rsp)
	movl	4(%rsp), %esi
	addq	%r9, %r14
	movl	-116(%rsp), %r9d
	movl	8(%rsp), %ecx
	movl	12(%rsp), %edx
	movl	16(%rsp), %eax
	addq	%r9, %r14
	movl	-112(%rsp), %r9d
	addq	%r14, %r9
	addq	%r10, %r9
	movl	-104(%rsp), %r10d
	addq	%r10, %r9
	movl	-100(%rsp), %r10d
	addq	%r10, %r9
	movl	-96(%rsp), %r10d
	addq	%r10, %r9
	movl	-92(%rsp), %r10d
	addq	%r10, %r9
	movl	-88(%rsp), %r10d
	addq	%r10, %r9
	addq	%r9, %r8
	addq	%r8, %rdi
	addq	%rdi, %rsi
	addq	%rsi, %rcx
	addq	%rcx, %rdx
	addq	%rdx, %rax
	movq	%rax, 28(%rsp)
	movq	20(%rsp), %rax
	addq	$1, %rax
	movq	%rax, 20(%rsp)
	movq	20(%rsp), %rax
	cmpq	-84(%rsp), %rax
	jb	.L5
.L3:
	addq	$36, %rsp
	.cfi_def_cfa_offset 56
	xorl	%eax, %eax
	popq	%rbx
	.cfi_def_cfa_offset 48
	popq	%rbp
	.cfi_def_cfa_offset 40
	popq	%r12
	.cfi_def_cfa_offset 32
	popq	%r13
	.cfi_def_cfa_offset 24
	popq	%r14
	.cfi_def_cfa_offset 16
	popq	%r15
	.cfi_def_cfa_offset 8
	ret
	.cfi_endproc
.LFE1016:
	.size	compute_integer_op, .-compute_integer_op
	.p2align 4,,15
	.globl	compute_float_op
	.type	compute_float_op, @function
compute_float_op:
.LFB1017:
	.cfi_startproc
	fldz
	subq	$296, %rsp
	.cfi_def_cfa_offset 304
	vmovsd	.LC2(%rip), %xmm7
	fstpt	256(%rsp)
	vmovsd	.LC10(%rip), %xmm0
	vmovsd	.LC11(%rip), %xmm1
	flds	.LC1(%rip)
	vmovsd	.LC12(%rip), %xmm2
	fstpt	272(%rsp)
	vmovsd	%xmm7, 72(%rsp)
	vmovsd	.LC3(%rip), %xmm7
	vmovsd	.LC13(%rip), %xmm3
	vmovsd	%xmm7, 80(%rsp)
	vmovsd	.LC4(%rip), %xmm7
	vmovsd	%xmm7, 88(%rsp)
	vmovsd	.LC5(%rip), %xmm7
	vmovsd	%xmm7, 96(%rsp)
	vmovsd	.LC4(%rip), %xmm7
	vmovsd	%xmm7, 104(%rsp)
	vmovsd	.LC6(%rip), %xmm7
	vmovsd	%xmm7, 112(%rsp)
	vmovsd	.LC7(%rip), %xmm7
	vmovsd	%xmm7, 120(%rsp)
	vmovsd	.LC3(%rip), %xmm7
	vmovsd	%xmm7, 128(%rsp)
	vmovsd	.LC7(%rip), %xmm7
	vmovsd	%xmm7, 136(%rsp)
	vmovsd	.LC8(%rip), %xmm7
	vmovsd	%xmm7, 144(%rsp)
	vmovsd	.LC9(%rip), %xmm7
	vmovsd	%xmm7, 152(%rsp)
	vmovsd	%xmm0, 160(%rsp)
	vmovsd	%xmm1, 168(%rsp)
	vmovsd	%xmm2, 176(%rsp)
	vmovsd	%xmm3, 184(%rsp)
	vmovsd	.LC14(%rip), %xmm4
	vmovsd	.LC15(%rip), %xmm5
	fildq	ITERATIONS(%rip)
	vmovsd	.LC16(%rip), %xmm6
	vmovsd	.LC17(%rip), %xmm7
	vmovsd	.LC18(%rip), %xmm0
	vmovsd	.LC19(%rip), %xmm1
	vmovsd	.LC20(%rip), %xmm2
	vmovsd	.LC21(%rip), %xmm3
	vmovsd	%xmm4, 192(%rsp)
	vmovsd	%xmm5, 200(%rsp)
	vmovsd	%xmm6, 208(%rsp)
	vmovsd	%xmm7, 216(%rsp)
	vmovsd	%xmm0, 224(%rsp)
	vmovsd	%xmm1, 232(%rsp)
	vmovsd	%xmm2, 240(%rsp)
	vmovsd	%xmm3, 248(%rsp)
	fldt	256(%rsp)
	fxch	%st(1)
	fucomi	%st(1), %st
	fstp	%st(1)
	jbe	.L18
	fld1
	.p2align 4,,10
	.p2align 3
.L15:
	vmovsd	72(%rsp), %xmm0
	fldt	272(%rsp)
	vmovsd	%xmm0, -120(%rsp)
	vmovsd	80(%rsp), %xmm1
	vmovsd	88(%rsp), %xmm2
	vmovsd	96(%rsp), %xmm3
	vmovsd	104(%rsp), %xmm4
	vmovsd	112(%rsp), %xmm5
	vmovsd	120(%rsp), %xmm6
	vmovsd	128(%rsp), %xmm7
	vmovsd	136(%rsp), %xmm0
	vmovsd	%xmm1, -112(%rsp)
	vmovsd	%xmm2, -104(%rsp)
	vmovsd	144(%rsp), %xmm1
	vmovsd	%xmm3, -96(%rsp)
	vmovsd	152(%rsp), %xmm2
	vmovsd	%xmm4, -88(%rsp)
	vmovsd	160(%rsp), %xmm3
	vmovsd	%xmm5, -80(%rsp)
	vmovsd	168(%rsp), %xmm4
	vmovsd	%xmm6, -72(%rsp)
	vmovsd	176(%rsp), %xmm5
	vmovsd	%xmm7, -64(%rsp)
	vmovsd	184(%rsp), %xmm6
	vmovsd	%xmm0, -56(%rsp)
	vmovsd	192(%rsp), %xmm7
	vmovsd	200(%rsp), %xmm0
	vmovsd	%xmm1, -48(%rsp)
	vmovsd	%xmm2, -40(%rsp)
	vmovsd	%xmm3, -32(%rsp)
	vmovsd	%xmm4, -24(%rsp)
	vmovsd	%xmm5, -16(%rsp)
	vmovsd	%xmm6, -8(%rsp)
	vmovsd	%xmm7, (%rsp)
	vmovsd	%xmm0, 8(%rsp)
	faddl	-120(%rsp)
	vmovsd	208(%rsp), %xmm1
	vmovsd	216(%rsp), %xmm2
	vmovsd	%xmm1, 16(%rsp)
	vmovsd	%xmm2, 24(%rsp)
	vmovsd	224(%rsp), %xmm3
	faddl	-112(%rsp)
	vmovsd	%xmm3, 32(%rsp)
	vmovsd	232(%rsp), %xmm4
	vmovsd	240(%rsp), %xmm5
	vmovsd	%xmm4, 40(%rsp)
	vmovsd	%xmm5, 48(%rsp)
	faddl	-104(%rsp)
	vmovsd	248(%rsp), %xmm6
	vmovsd	%xmm6, 56(%rsp)
	faddl	-96(%rsp)
	faddl	-88(%rsp)
	faddl	-80(%rsp)
	faddl	-72(%rsp)
	faddl	-64(%rsp)
	faddl	-56(%rsp)
	faddl	-48(%rsp)
	faddl	-40(%rsp)
	faddl	-32(%rsp)
	faddl	-24(%rsp)
	faddl	-16(%rsp)
	faddl	-8(%rsp)
	faddl	(%rsp)
	faddl	8(%rsp)
	faddl	16(%rsp)
	faddl	24(%rsp)
	faddl	32(%rsp)
	faddl	40(%rsp)
	faddl	48(%rsp)
	faddl	56(%rsp)
	fstpt	272(%rsp)
	fldt	256(%rsp)
	fadd	%st(1), %st
	fstpt	256(%rsp)
	fldt	256(%rsp)
	fxch	%st(2)
	fucomi	%st(2), %st
	fstp	%st(2)
	ja	.L15
	fstp	%st(0)
	fstp	%st(0)
	jmp	.L11
.L18:
	fstp	%st(0)
	.p2align 4,,10
	.p2align 3
.L11:
	xorl	%eax, %eax
	addq	$296, %rsp
	.cfi_def_cfa_offset 8
	ret
	.cfi_endproc
.LFE1017:
	.size	compute_float_op, .-compute_float_op
	.p2align 4,,15
	.globl	exec_threads
	.type	exec_threads, @function
exec_threads:
.LFB1018:
	.cfi_startproc
	testl	%esi, %esi
	jle	.L28
	pushq	%r14
	.cfi_def_cfa_offset 16
	.cfi_offset 14, -16
	leal	-1(%rsi), %r14d
	pushq	%r13
	.cfi_def_cfa_offset 24
	.cfi_offset 13, -24
	leaq	1(%r14), %r13
	pushq	%r12
	.cfi_def_cfa_offset 32
	.cfi_offset 12, -32
	movq	%rdi, %r12
	pushq	%rbp
	.cfi_def_cfa_offset 40
	.cfi_offset 6, -40
	pushq	%rbx
	.cfi_def_cfa_offset 48
	.cfi_offset 3, -48
	xorl	%ebx, %ebx
	subq	$64, %rsp
	.cfi_def_cfa_offset 112
	movq	%rsp, %rbp
	.p2align 4,,10
	.p2align 3
.L22:
	movq	%rbx, %rcx
	xorl	%esi, %esi
	movq	%rbp, %rdi
	movq	%r12, %rdx
	addq	$1, %rbx
	addq	$8, %rbp
	call	pthread_create
	cmpq	%r13, %rbx
	jne	.L22
	leaq	8(%rsp,%r14,8), %rbp
	movq	%rsp, %rbx
	.p2align 4,,10
	.p2align 3
.L24:
	movq	(%rbx), %rdi
	xorl	%esi, %esi
	addq	$8, %rbx
	call	pthread_join
	cmpq	%rbp, %rbx
	jne	.L24
	addq	$64, %rsp
	.cfi_def_cfa_offset 48
	popq	%rbx
	.cfi_restore 3
	.cfi_def_cfa_offset 40
	popq	%rbp
	.cfi_restore 6
	.cfi_def_cfa_offset 32
	popq	%r12
	.cfi_restore 12
	.cfi_def_cfa_offset 24
	popq	%r13
	.cfi_restore 13
	.cfi_def_cfa_offset 16
	popq	%r14
	.cfi_restore 14
	.cfi_def_cfa_offset 8
.L28:
	rep ret
	.cfi_endproc
.LFE1018:
	.size	exec_threads, .-exec_threads
	.p2align 4,,15
	.globl	compute_avx
	.type	compute_avx, @function
compute_avx:
.LFB1019:
	.cfi_startproc
	rep ret
	.cfi_endproc
.LFE1019:
	.size	compute_avx, .-compute_avx
	.section	.rodata.str1.1,"aMS",@progbits,1
.LC24:
	.string	"%d  %llf\n"
	.text
	.p2align 4,,15
	.globl	calculate_FLOPS
	.type	calculate_FLOPS, @function
calculate_FLOPS:
.LFB1020:
	.cfi_startproc
	pushq	%rbx
	.cfi_def_cfa_offset 16
	.cfi_offset 3, -16
	movl	%edi, %ebx
	xorl	%edi, %edi
	subq	$64, %rsp
	.cfi_def_cfa_offset 80
	leaq	32(%rsp), %rsi
	call	clock_gettime
	movl	%ebx, %esi
	movl	$compute_float_op, %edi
	call	exec_threads
	leaq	48(%rsp), %rsi
	xorl	%edi, %edi
	call	clock_gettime
	movq	48(%rsp), %rax
	subq	32(%rsp), %rax
	imulq	$1000000000, %rax, %rax
	addq	56(%rsp), %rax
	subq	40(%rsp), %rax
	movq	%rax, 24(%rsp)
	testq	%rax, %rax
	fildq	24(%rsp)
	js	.L33
.L31:
	movq	fp(%rip), %rdi
	movl	%ebx, %edx
	movl	$.LC24, %esi
	xorl	%eax, %eax
	fdivrs	.LC26(%rip)
	fstpt	(%rsp)
	call	fprintf
	addq	$64, %rsp
	.cfi_remember_state
	.cfi_def_cfa_offset 16
	popq	%rbx
	.cfi_def_cfa_offset 8
	ret
	.p2align 4,,10
	.p2align 3
.L33:
	.cfi_restore_state
	fadds	.LC25(%rip)
	jmp	.L31
	.cfi_endproc
.LFE1020:
	.size	calculate_FLOPS, .-calculate_FLOPS
	.p2align 4,,15
	.globl	calculate_IOPS
	.type	calculate_IOPS, @function
calculate_IOPS:
.LFB1021:
	.cfi_startproc
	pushq	%rbx
	.cfi_def_cfa_offset 16
	.cfi_offset 3, -16
	movl	%edi, %ebx
	xorl	%edi, %edi
	subq	$64, %rsp
	.cfi_def_cfa_offset 80
	leaq	32(%rsp), %rsi
	call	clock_gettime
	movl	%ebx, %esi
	movl	$compute_integer_op, %edi
	call	exec_threads
	leaq	48(%rsp), %rsi
	xorl	%edi, %edi
	call	clock_gettime
	movq	48(%rsp), %rax
	subq	32(%rsp), %rax
	imulq	$1000000000, %rax, %rax
	addq	56(%rsp), %rax
	subq	40(%rsp), %rax
	js	.L35
	vcvtsi2sdq	%rax, %xmm0, %xmm0
.L36:
	vmovsd	.LC27(%rip), %xmm1
	movq	fp(%rip), %rdi
	movl	%ebx, %edx
	movl	$.LC24, %esi
	xorl	%eax, %eax
	vdivsd	%xmm0, %xmm1, %xmm2
	vmovsd	%xmm2, 24(%rsp)
	fldl	24(%rsp)
	fstpt	(%rsp)
	call	fprintf
	addq	$64, %rsp
	.cfi_remember_state
	.cfi_def_cfa_offset 16
	popq	%rbx
	.cfi_def_cfa_offset 8
	ret
	.p2align 4,,10
	.p2align 3
.L35:
	.cfi_restore_state
	movq	%rax, %rdx
	andl	$1, %eax
	shrq	%rdx
	orq	%rax, %rdx
	vcvtsi2sdq	%rdx, %xmm0, %xmm0
	vaddsd	%xmm0, %xmm0, %xmm0
	jmp	.L36
	.cfi_endproc
.LFE1021:
	.size	calculate_IOPS, .-calculate_IOPS
	.section	.rodata.str1.1
.LC28:
	.string	"a+"
.LC29:
	.string	"IOPS"
.LC30:
	.string	"FLOPS"
	.section	.text.startup,"ax",@progbits
	.p2align 4,,15
	.globl	main
	.type	main, @function
main:
.LFB1022:
	.cfi_startproc
	pushq	%r12
	.cfi_def_cfa_offset 16
	.cfi_offset 12, -16
	movl	$10, %edx
	pushq	%rbp
	.cfi_def_cfa_offset 24
	.cfi_offset 6, -24
	pushq	%rbx
	.cfi_def_cfa_offset 32
	.cfi_offset 3, -32
	movq	24(%rsi), %rdi
	movq	%rsi, %rbx
	xorl	%esi, %esi
	call	strtol
	movq	8(%rbx), %rdi
	xorl	%esi, %esi
	movl	$10, %edx
	movq	%rax, %rbp
	call	strtol
	movq	16(%rbx), %rdi
	xorl	%esi, %esi
	movl	$10, %edx
	movq	%rax, %r12
	call	strtol
	movq	%rax, %rsi
	movl	$1000000000, %eax
	movslq	%ebp, %rcx
	cqto
	idivq	%rcx
	cmpl	$1, %r12d
	movq	%rax, ITERATIONS(%rip)
	je	.L43
	cmpl	$2, %esi
	je	.L44
.L41:
	popq	%rbx
	.cfi_remember_state
	.cfi_def_cfa_offset 24
	popq	%rbp
	.cfi_def_cfa_offset 16
	xorl	%eax, %eax
	popq	%r12
	.cfi_def_cfa_offset 8
	ret
.L43:
	.cfi_restore_state
	cmpl	$2, %esi
	jne	.L41
	movl	$.LC28, %esi
	movl	$.LC29, %edi
	call	fopen
	movl	%ebp, %edi
	movq	%rax, fp(%rip)
	call	calculate_IOPS
	jmp	.L41
.L44:
	movl	$.LC28, %esi
	movl	$.LC30, %edi
	call	fopen
	movl	%ebp, %edi
	movq	%rax, fp(%rip)
	call	calculate_FLOPS
	jmp	.L41
	.cfi_endproc
.LFE1022:
	.size	main, .-main
	.globl	fp
	.bss
	.align 8
	.type	fp, @object
	.size	fp, 8
fp:
	.zero	8
	.comm	ITERATIONS,8,8
	.section	.rodata.cst4,"aM",@progbits,4
	.align 4
.LC1:
	.long	1075838976
	.section	.rodata.cst8,"aM",@progbits,8
	.align 8
.LC2:
	.long	0
	.long	1072693248
	.align 8
.LC3:
	.long	0
	.long	1074266112
	.align 8
.LC4:
	.long	0
	.long	1074790400
	.align 8
.LC5:
	.long	0
	.long	1075576832
	.align 8
.LC6:
	.long	0
	.long	1075838976
	.align 8
.LC7:
	.long	0
	.long	1075970048
	.align 8
.LC8:
	.long	0
	.long	1076101120
	.align 8
.LC9:
	.long	0
	.long	1076232192
	.align 8
.LC10:
	.long	0
	.long	1076363264
	.align 8
.LC11:
	.long	0
	.long	1076494336
	.align 8
.LC12:
	.long	0
	.long	1076625408
	.align 8
.LC13:
	.long	0
	.long	1076756480
	.align 8
.LC14:
	.long	0
	.long	1076887552
	.align 8
.LC15:
	.long	0
	.long	1076953088
	.align 8
.LC16:
	.long	0
	.long	1077018624
	.align 8
.LC17:
	.long	0
	.long	1077084160
	.align 8
.LC18:
	.long	0
	.long	1077149696
	.align 8
.LC19:
	.long	0
	.long	1077215232
	.align 8
.LC20:
	.long	0
	.long	1077280768
	.align 8
.LC21:
	.long	0
	.long	1077346304
	.section	.rodata.cst4
	.align 4
.LC25:
	.long	1602224128
	.align 4
.LC26:
	.long	1353896030
	.section	.rodata.cst8
	.align 8
.LC27:
	.long	3221225472
	.long	1108761099
	.comm	__gnu_lto_v1,1,1
	.ident	"GCC: (GNU) 4.8.5 20150623 (Red Hat 4.8.5-11)"
	.section	.note.GNU-stack,"",@progbits
